(dp0
S'0xf4d40c9e41c16d7b344e0dfc6a0372de4959b44610031L'
p1
c__builtin__
set
p2
((lp3
S'Neo123'
p4
atp5
Rp6
sS'0x7444df3b27d5bbd74d26c9ea060d330c13b748b00004d6a07L'
p7
g2
((lp8
g4
atp9
Rp10
sS'0xc042e12ec3be500be09bdab643003b6c8f93f117b6L'
p11
g2
((lp12
g4
atp13
Rp14
sS'0xad506ef87499f29dce2a2c9fea514e390ae028f8d673c5L'
p15
g2
((lp16
g4
atp17
Rp18
sS'0xd3ad175a340ce674627f3567e0499e5d31225f1ab45d9d6b5L'
p19
g2
((lp20
g4
atp21
Rp22
sS'0x18bdf26f9260f75622aee40f09b3703ee6f6192832L'
p23
g2
((lp24
g4
atp25
Rp26
sS'0x2c4c3300f48b4a6cb8f0f33417026f1142cd17e6fc4d2L'
p27
g2
((lp28
g4
atp29
Rp30
sS'0xfd3db8960682a487c399e7884f0f58205e43853af0L'
p31
g2
((lp32
g4
atp33
Rp34
sS'0x2099b6936c1441abe348671b6083b64d89c7cfea6a60f6L'
p35
g2
((lp36
g4
atp37
Rp38
sS'0x1159da767ba0d8b05f6aee82620a1aea355022d4dab22f5982L'
p39
g2
((lp40
g4
atp41
Rp42
sS'0x1c02aeb98615653749cecb2d6992642828a8e8122d69a94caL'
p43
g2
((lp44
g4
atp45
Rp46
sS'0x1f64cb6abd83ef3fbcea9c702c0b73cc3609e91d5a21cL'
p47
g2
((lp48
g4
atp49
Rp50
sS'0x46e125f5996cf82bd08282297c966dbe52e4c922dba1L'
p51
g2
((lp52
g4
atp53
Rp54
sS'0x1651ab91bf48bccd556c9cbc0a1b76dad7bbc7d3a97995aL'
p55
g2
((lp56
g4
atp57
Rp58
sS'0x39f4cdf11602fcb280f656ace173a70b27aa7ea934349L'
p59
g2
((lp60
g4
atp61
Rp62
sS'0x65ce4e2ab0f4c46a695e87071ef615604bd62f458f365b42421eL'
p63
g2
((lp64
g4
atp65
Rp66
sS'0x198d03fe684db3c93fe1c9d3d08b603b52d9cf072c90L'
p67
g2
((lp68
g4
atp69
Rp70
sS'0x607c4feaef79db0ce7a4282bad560122df0cadb715e7L'
p71
g2
((lp72
g4
atp73
Rp74
sS'0x25d88017dc8e275fb31b210ea8f73eca042472aadef46acL'
p75
g2
((lp76
g4
atp77
Rp78
sS'0x1524ab3b1c7292ebe43ea06af31ff82638aed23522395fL'
p79
g2
((lp80
g4
atp81
Rp82
sS'0xbc55acdad4821eb5a026aa130cddb16ede505bcdeL'
p83
g2
((lp84
g4
atp85
Rp86
sS'0x2a96c564116929f878dd5ee85e65198ba09903c184f2afc41ce6adL'
p87
g2
((lp88
g4
atp89
Rp90
sS'0x28d30908bea953245407ba7c1f1e50f0a44ef6f7b6bae9136ce30ea5L'
p91
g2
((lp92
g4
atp93
Rp94
sS'0x9e490f0bfed767e5d7906f6306b31e99f5ffaa6210e0L'
p95
g2
((lp96
g4
atp97
Rp98
sS'0x1717969d45a319d0ff3c57b9d4dc79af4c58bca668c6cacL'
p99
g2
((lp100
g4
atp101
Rp102
sS'0x19410dc934c877a660d269f93983276e2e756f2606L'
p103
g2
((lp104
g4
atp105
Rp106
sS'0x2f489d9920e123f635db149ba3fa515d5ec68994e7516eL'
p107
g2
((lp108
g4
atp109
Rp110
sS'0x63fbc45c7290febd8dfd96087263516b92d8326046bcf3d6b0e352L'
p111
g2
((lp112
g4
atp113
Rp114
sS'0x9f31faae494e2e9e50aa6a79461b3485839524a93L'
p115
g2
((lp116
g4
atp117
Rp118
sS'0x7c606bc7a05bdcf4a3ca7e44a66eb47e702eeaa7cf297ff7c0L'
p119
g2
((lp120
g4
atp121
Rp122
sS'0x5e0f57e4125603cfa37b3087f068091d9ba68cef306b677L'
p123
g2
((lp124
g4
atp125
Rp126
sS'0x28403d849d73f760fbf9e03aae7419a973060c23a67e519L'
p127
g2
((lp128
g4
atp129
Rp130
sS'0x10c7f6b1d610b717991db20c12e91347a9c0782dacL'
p131
g2
((lp132
g4
atp133
Rp134
sS'0xa0efc00d7c126e7750daa698746b095fa7f794fc0L'
p135
g2
((lp136
g4
atp137
Rp138
sS'0xc0d3f6ebca5a30d86dae9b1ecf6957934cafcfb03a01L'
p139
g2
((lp140
g4
atp141
Rp142
sS'0x19feb47d8af85fc2ca7d8b33aa6c40b00dd2ef454c1dc167d4cL'
p143
g2
((lp144
g4
atp145
Rp146
sS'0x1e83dafa8adb6136d13c972f5c68f8331f2964ec2322f5b36b8e5L'
p147
g2
((lp148
g4
atp149
Rp150
sS'0x22a5e8d9d067d25dd619a862407c060b5ea6eeb38841f17L'
p151
g2
((lp152
g4
atp153
Rp154
sS'0x9e6c1dd021158a59ccc80b129f13623b1161e80a83796L'
p155
g2
((lp156
g4
atp157
Rp158
sS'0x9f5f7dcb46537285e21bbcbd9b5cedfde49fbc95bc93fe19ce36f6baL'
p159
g2
((lp160
g4
atp161
Rp162
sS'0x9ec173163a8ee3d7648a1309ff2c72ca792119f2629df0L'
p163
g2
((lp164
g4
atp165
Rp166
sS'0x42944eea8f93f335de2385c41453d55d90fadb4f4b5731L'
p167
g2
((lp168
g4
atp169
Rp170
sS'0x337849c89b319f8713997b916d0c004a7668c134cbbL'
p171
g2
((lp172
g4
atp173
Rp174
sS'0x33a3db77a8cad0a944809ec34673f8b22a424e8f46ed07L'
p175
g2
((lp176
g4
atp177
Rp178
sS'0x58880b77a9a45bb8a3cd4d7a3ee9efafe30698e2160L'
p179
g2
((lp180
g4
atp181
Rp182
sS'0x222c980f63b934b8903e36c2b7c0238ddc278fdf29f2b14L'
p183
g2
((lp184
g4
atp185
Rp186
sS'0x4d7c88fbb7a64b02fe9a30f34a1503078c8e2619e2807d563L'
p187
g2
((lp188
g4
atp189
Rp190
sS'0x41a29b5231502aaf8eeb7ca1ac016f2dd3bc309935fecc8aL'
p191
g2
((lp192
g4
atp193
Rp194
sS'0xb70972b8aad3e769be1a828c51ac990d837e7742ef1e66L'
p195
g2
((lp196
g4
atp197
Rp198
sS'0x1597a0aff71bc59b2cec977c656218aa73ea77b4a47125aa968c0fcL'
p199
g2
((lp200
g4
atp201
Rp202
sS'0x34c452793c612f935d7980ffeaa01b17e9345a5a49L'
p203
g2
((lp204
g4
atp205
Rp206
sS'0x1224688a9ab71b4fdc4f5be1872299fac68105cdf49L'
p207
g2
((lp208
g4
atp209
Rp210
sS'0x418f5e9e12749fadc87f72117a3520e1ca5d5f45f779ca6212L'
p211
g2
((lp212
g4
atp213
Rp214
sS'0x2df080ce41b6744467f7043ad6422d44205bc25b74b0c41dd9f918b6731L'
p215
g2
((lp216
g4
atp217
Rp218
sS'0x40c6e20fe55350df2516370a0e9b2ec592a45487925c6892d7c0f8bL'
p219
g2
((lp220
g4
atp221
Rp222
sS'0x251579a57008ba0379fdabe1d8ae03dfbe3fc352b47d392L'
p223
g2
((lp224
g4
atp225
Rp226
sS'0x1d1c6919b2227404e6abccc005ce510e9af0a1552L'
p227
g2
((lp228
g4
atp229
Rp230
sS'0x92ee855bdd65ed884c1cbbd7ddfe8e236aeb3f9545683acade6d4359250L'
p231
g2
((lp232
g4
atp233
Rp234
sS'0x80e1f58f8319022968b1cda63a5f93fbb28de6ed059ba6ab7fac8aL'
p235
g2
((lp236
g4
atp237
Rp238
sS'0x141c1c1513256423c01964b40052e2697c09e97b086af655986L'
p239
g2
((lp240
g4
atp241
Rp242
sS'0x51cd39605ce6280e142f7356e5e1b2f23aad70db14644L'
p243
g2
((lp244
g4
atp245
Rp246
sS'0x48d81b80aeb460a420e51de915e7642343bedaa6354fL'
p247
g2
((lp248
g4
atp249
Rp250
sS'0x29a38cfc58725d412b9811c965c19dd07ebfd616fd9c2676f86af4L'
p251
g2
((lp252
g4
atp253
Rp254
sS'0x2293330d6729cfcbdaadc3fe29aa0124720701c772027dfa732a4efd9e2ab7L'
p255
g2
((lp256
g4
atp257
Rp258
sS'0x5da7cc41526b0206484b0f3d178d38edbbd87a87afcaf1777b5L'
p259
g2
((lp260
g4
atp261
Rp262
sS'0x1a3fcb0e4dec8d7638ffc5aa29cc79695e7796d36ea3L'
p263
g2
((lp264
g4
atp265
Rp266
sS'0x4fc3a38e597dd05eea9036e6efc65bceacc5e5af06f087acf87L'
p267
g2
((lp268
g4
atp269
Rp270
sS'0x88b4d0f44595069be4a4069a11f346c5dd29935eaL'
p271
g2
((lp272
g4
atp273
Rp274
sS'0x1e99f840365c2d38dc7f559d0d0f9c31296255c524928L'
p275
g2
((lp276
g4
atp277
Rp278
sS'0xf1a63590a2291bf4f55089e4385b9197a5ec3b37058fd472bf6L'
p279
g2
((lp280
g4
atp281
Rp282
sS'0x229630d3dcc1ec418ca6efc42da4f0b1d5a155619b537e705387fe8baeL'
p283
g2
((lp284
g4
atp285
Rp286
sS'0x6d81463bde0e6e4920f06c1c58fb44378fc031926e07fL'
p287
g2
((lp288
g4
atp289
Rp290
sS'0x246cb86ad3ecd6b2f0e97d0096f6c6e28d6a3631f38d93aa239918131069L'
p291
g2
((lp292
g4
atp293
Rp294
sS'0x246fdf28f0fedd80f6d95f3c7dab3cffa0710b1f148ecb6470159156L'
p295
g2
((lp296
g4
atp297
Rp298
sS'0xcf33bc6b8e05e9f3ec436f3f0b1abfd8c18b1ca1ea9ca07fL'
p299
g2
((lp300
g4
atp301
Rp302
sS'0x87605ef93cb36a423cebfec6d92f4c78413f721cc05c17cd9dL'
p303
g2
((lp304
g4
atp305
Rp306
sS'0x272483ef84811461def44224c5937c283f3cd8a2dL'
p307
g2
((lp308
g4
atp309
Rp310
sS'0x6ef7aa24de8b64daaeaf5f970aa0bb3582b56e6d58407f56ccL'
p311
g2
((lp312
g4
atp313
Rp314
sS'0x2409091550668cd10b9a9dd9c7a8aba3baf9aaf49bL'
p315
g2
((lp316
g4
atp317
Rp318
sS'0xf23825a695234b5d1505962234c166cdca1269a4L'
p319
g2
((lp320
g4
atp321
Rp322
sS'0x7e74ada499fed4505c7acc91040495733c6695e37L'
p323
g2
((lp324
g4
atp325
Rp326
sS'0x71c26c691fe1b94f18728e6cc81b3cd5d1866110930L'
p327
g2
((lp328
g4
atp329
Rp330
sS'0x2febd6de676f94c9a0eb3411c1bb1f93652de3f81e99L'
p331
g2
((lp332
g4
atp333
Rp334
sS'0xfc3609d41c0158c91a9f3d97941ee906260b0c19d738L'
p335
g2
((lp336
g4
atp337
Rp338
sS'0x101e667e8d77903d4be8d3a71b7502dddb53770e08a5L'
p339
g2
((lp340
g4
atp341
Rp342
sS'0xba581ce77baad571a3764d3c24b84e16c94a6f69c3667e2939L'
p343
g2
((lp344
g4
atp345
Rp346
sS'0xc243d78f14ef23ba5a2e6fa25a018dabffcd51cde72104d7ddf614fe31fL'
p347
g2
((lp348
g4
atp349
Rp350
sS'0x46bc259f4712c66ef58a58b8e6a81c5d5a4cd1904L'
p351
g2
((lp352
g4
atp353
Rp354
sS'0x6be2fb2e6a10cbb7cbe21ee69ab0f52f866ec560609032f001c6eL'
p355
g2
((lp356
g4
atp357
Rp358
sS'0xdeede09e062d3f91d6376e3733eec7806a5d970d923L'
p359
g2
((lp360
g4
atp361
Rp362
sS'0x10ef3d06590d7c1c0373ec8c4da4fe9bccbd20ebd32bd5123873c3f9L'
p363
g2
((lp364
g4
atp365
Rp366
sS'0x16e82fb21c1b6347eda5d8571f6f89fd154b62791c37d3L'
p367
g2
((lp368
g4
atp369
Rp370
sS'0x7561d72647fea46c47c384781ab286a35a295b512L'
p371
g2
((lp372
g4
atp373
Rp374
sS'0xd9c23017e12f2d3f039c74ad9b2b0b03d49117cf4231a1L'
p375
g2
((lp376
g4
atp377
Rp378
sS'0x70c38da88ac3967345df621f1ec9fa41ed2cea12418e3L'
p379
g2
((lp380
g4
atp381
Rp382
sS'0x132e5773b818015b258779fe89eb51e59b45b302f99b3ef298afL'
p383
g2
((lp384
g4
atp385
Rp386
sS'0x594cd0dda0c05810856396616d23a6a92ceeb0a418b1045L'
p387
g2
((lp388
g4
atp389
Rp390
sS'0x1c3ff5b3b0830547fb7109d1abf1e192631b4fe9eb42d8786c8L'
p391
g2
((lp392
g4
atp393
Rp394
sS'0x230e42c3196000c9970f28c40b3492d431a3eb2833L'
p395
g2
((lp396
g4
atp397
Rp398
sS'0xe8654a3ac8fbeff25b732800427ee2838a5a61ce1be222bL'
p399
g2
((lp400
g4
atp401
Rp402
sS'0x841bfff86a153e7d5221134a6a8598f7ade67e4e69c5feb9aL'
p403
g2
((lp404
g4
atp405
Rp406
sS'0x1ad0b63990914f6ce98e15203aba8b1743ea1c8ab8c6babf1a3fbL'
p407
g2
((lp408
g4
atp409
Rp410
sS'0x8dd9d8dad85936359981be806d8b09df14718a85a7aafdL'
p411
g2
((lp412
g4
atp413
Rp414
sS'0x17f6e19f2fdec5e2f58a1713c22f646c1314ac18bd607516878L'
p415
g2
((lp416
g4
atp417
Rp418
sS'0x1ac3936d96f4cda1a871b86081531f19a5cb4ee794df09d823L'
p419
g2
((lp420
g4
atp421
Rp422
sS'0x8c58d10c1bb538c155a4f079622f73634962319bcL'
p423
g2
((lp424
g4
atp425
Rp426
sS'0x38966813f9cfb2d75dce8929db93a700f14e68d1ec5c6930be0L'
p427
g2
((lp428
g4
atp429
Rp430
sS'0x23804f6d97061bb295807a6a12e8d44a8ff7c443e0f83d9e756L'
p431
g2
((lp432
g4
atp433
Rp434
sS'0x167bd5fc643e9f88781f0073c1cacc3bb85b8483ceL'
p435
g2
((lp436
g4
atp437
Rp438
sS'0x175214356e1c9a021e802d0fd5c501ab1726da84ca1408f1525L'
p439
g2
((lp440
g4
atp441
Rp442
sS'0xafe53148a4f70184e7fb9bc00d8480fd3fe1f451L'
p443
g2
((lp444
g4
atp445
Rp446
sS'0x7f40d24614d2927f69c8b32df3708bf2d6eab882e4L'
p447
g2
((lp448
g4
atp449
Rp450
sS'0x255ae97ed5b5d81b9edec60af0abc0e196ce1012899962658a8815L'
p451
g2
((lp452
g4
atp453
Rp454
sS'0xe227dc3c3b2100666c867ec97cc530856c6a37145122L'
p455
g2
((lp456
g4
atp457
Rp458
sS'0x1d47a0a7f13e9fa44f4dc0aaa3c1b7d5b33d55fbb690450bb2eL'
p459
g2
((lp460
g4
atp461
Rp462
sS'0x490e424345eff2587fbe31599c14ae78477dd85474L'
p463
g2
((lp464
g4
atp465
Rp466
sS'0x8aa3c29d8f8b8f4f87e8ff1da29d00dc5c0343fb85302fc2d5L'
p467
g2
((lp468
g4
atp469
Rp470
sS'0x626b906d25178b39017180c652e77c96974a7da19d778L'
p471
g2
((lp472
g4
atp473
Rp474
sS'0x1f37eec070ccda3925eb1506e90e820909eb88d6d1bb0dd5f6dL'
p475
g2
((lp476
g4
atp477
Rp478
sS'0x5411fa21c468d771d90ec63e11f44aefd74a8389793cL'
p479
g2
((lp480
g4
atp481
Rp482
sS'0x1a1b29178952bfa12fc24e5955de11723c5cfee244L'
p483
g2
((lp484
g4
atp485
Rp486
sS'0x112dfec4c4a89fb97cb5f49a28dd10b9984af24c8cbe7eb123L'
p487
g2
((lp488
g4
atp489
Rp490
sS'0xe4a4cc793b67cdbe6e442b985819d21faa8bbacc4b5708097279L'
p491
g2
((lp492
g4
atp493
Rp494
sS'0x200185b026f7d0b62058c4c58adb9e5471610da13L'
p495
g2
((lp496
g4
atp497
Rp498
sS'0x10be6729dec94dea79e79f634da919a9d364440bca1aaa04L'
p499
g2
((lp500
g4
atp501
Rp502
sS'0x748d19fc8db427a2a3f1374864ec0751c962ea2bbaca0160dL'
p503
g2
((lp504
g4
atp505
Rp506
sS'0x1963e30dc396b4eaa724bedaa4dae60c5c0187615dL'
p507
g2
((lp508
g4
atp509
Rp510
sS'0x14883e051ea9bdfb9d7b60a8befdf364bb83827cb66e14L'
p511
g2
((lp512
g4
atp513
Rp514
sS'0x1dccb21d80b50f90fdab23cb82a14154043f6bf96e5884cL'
p515
g2
((lp516
g4
atp517
Rp518
sS'0x37cf736934e4e8a9a42fbd4524d0c8540e83f89839d8L'
p519
g2
((lp520
g4
atp521
Rp522
sS'0x1d0c2ba9bcb200191a2356a5592af5c7a8eb74f8ac3e5b8L'
p523
g2
((lp524
g4
atp525
Rp526
sS'0xb03ecd077a313ade611761d0ada27fdf2fb36799cfL'
p527
g2
((lp528
g4
atp529
Rp530
sS'0x21df6187af548fdacfa356c8db5cb435e769f37afL'
p531
g2
((lp532
g4
atp533
Rp534
sS'0x7239d4fba865646721e692e919699306a6ce45d009b79da07908c83176ed2bL'
p535
g2
((lp536
g4
atp537
Rp538
sS'0x25379d99df32f09c183191145d6acafaf34081d2ff2b1cL'
p539
g2
((lp540
g4
atp541
Rp542
sS'0x1d2a00865db58477f74ed94da64fa9210f8d1b259863def813e4b426cL'
p543
g2
((lp544
g4
atp545
Rp546
sS'0xc51e178094a464afd8a9f17160c690af5d500e4dL'
p547
g2
((lp548
g4
atp549
Rp550
sS'0xbc698f0f71099577684244c314094abc4a8c9e2c3a4ed25L'
p551
g2
((lp552
g4
atp553
Rp554
sS'0x1c7466ecfe727aba1c42285636037d5c8956beeff2L'
p555
g2
((lp556
g4
atp557
Rp558
sS'0x78b8d4b2eeceed15ba56889c5e22621dd26a09edc8ba5ee9f27dfb54084L'
p559
g2
((lp560
g4
atp561
Rp562
sS'0x2e67a886e4277f07523726699646e50b3c987bae4d42L'
p563
g2
((lp564
g4
atp565
Rp566
sS'0xc2acc2bf776f602f3350d3b3450ac29ec779695e962bL'
p567
g2
((lp568
g4
atp569
Rp570
sS'0xe5f6aef458b7d4fc801f68ea7739cdf9e266ac142a0cL'
p571
g2
((lp572
g4
atp573
Rp574
sS'0x28da373d0cace1713ce98b564046f7f2cd049eee8dcc3L'
p575
g2
((lp576
g4
atp577
Rp578
sS'0x91294fa4b5fcb5da5afc9499f9e047d354417882eL'
p579
g2
((lp580
g4
atp581
Rp582
sS'0x2b277b99d8b76e39842c513a4be76bf10f6e81b9d8cL'
p583
g2
((lp584
g4
atp585
Rp586
sS'0x32448dbe9c20deec0a1091fa7a02a1ae2527b3be71L'
p587
g2
((lp588
g4
atp589
Rp590
sS'0x2fd0cb92c2f1d44bb96f94e7487449f0340de098eL'
p591
g2
((lp592
g4
atp593
Rp594
sS'0x633a81b15267a1c82a10c74503860acc66828bbaL'
p595
g2
((lp596
g4
atp597
Rp598
sS'0x6869c3be2c24d0f613fbf698e789dc64f39b401cfL'
p599
g2
((lp600
g4
atp601
Rp602
sS'0x3a5866269e168ea801053b2b693da02f0af5e4c5f9fe70c8fb5ec1b6f138c19L'
p603
g2
((lp604
g4
atp605
Rp606
sS'0x1759528e84a7d9bd43178c4fca469334ba4062a7c3fa78L'
p607
g2
((lp608
g4
atp609
Rp610
sS'0xfe4bbed12acd3fec9116dd4294d499892254f043b71a21122L'
p611
g2
((lp612
g4
atp613
Rp614
sS'0x3a1f051844207b08a7fa9a85cc95f13a1d8c51a2efL'
p615
g2
((lp616
g4
atp617
Rp618
sS'0xef5f9e907f1139c3c1398fc9634519ee8db41f452015327L'
p619
g2
((lp620
g4
atp621
Rp622
sS'0xe3241cc05cdb88f6fd87424aed58f17f7315ff243b48bfc55ade5L'
p623
g2
((lp624
g4
atp625
Rp626
sS'0xe46a655b9c3e00eb0c820a6335d0aefd18e45207L'
p627
g2
((lp628
g4
atp629
Rp630
sS'0x31ce844527f2f6ff46a3d16ca860d8445d627407a23L'
p631
g2
((lp632
g4
atp633
Rp634
sS'0xa349c167bb0b0a7904b35e06dfd9d602bbe16cbd2L'
p635
g2
((lp636
g4
atp637
Rp638
sS'0x1e1b1727bac2a3be9aee37f26cf1906c6c45c788b7d0c30a18060b0L'
p639
g2
((lp640
g4
atp641
Rp642
sS'0x1cbddc16c123211816e2c49d326f2b3fff2db2e08284d2d6efL'
p643
g2
((lp644
g4
atp645
Rp646
sS'0x2ac3a5c4114e3979fc0c47e9667c4dc3669945b1aL'
p647
g2
((lp648
g4
atp649
Rp650
sS'0x2bad45cdbfc35374530f38230ccd6066cc8b17cdc570d35bL'
p651
g2
((lp652
g4
atp653
Rp654
sS'0x64f904644a35607f98c45136d559f8738dbbdae890c67367f8b335b8beL'
p655
g2
((lp656
g4
atp657
Rp658
sS'0x8bf39aa0f5dd51107d83f9a00078deedde0a5d27L'
p659
g2
((lp660
g4
atp661
Rp662
sS'0x147d27bc173538c4a78368b4b944e35e37d3f427b780865f35e4bb3a31930L'
p663
g2
((lp664
g4
atp665
Rp666
sS'0x92a33ed8d6243660d72ccccdbb5080936a90e94fac78aa2aa652a37fL'
p667
g2
((lp668
g4
atp669
Rp670
sS'0x13f1fa8be8bb87ffe6b438a201f83300feac1f27a3d39422315688adfL'
p671
g2
((lp672
g4
atp673
Rp674
sS'0x5b8b90efa092310e379df1eb775268f975a2af08c7c105d49f12dL'
p675
g2
((lp676
g4
atp677
Rp678
sS'0x2698162fc45da56511a7b701523fb76c67d5849cf2a95ceca27e6f0bL'
p679
g2
((lp680
g4
atp681
Rp682
sS'0xadbdf8085869e7c2bf73f38240af99530863df662ce50212L'
p683
g2
((lp684
g4
atp685
Rp686
sS'0x9da6741f7789043cf8e65d5b15390f8ad3d350801bad3fa5L'
p687
g2
((lp688
g4
atp689
Rp690
sS'0x33d8e47d185f24631f05c20815f3a70a477c515da7031380211f2043L'
p691
g2
((lp692
g4
atp693
Rp694
sS'0x10a08e3f5c97eef8333c3ed2778a65919971d89fb573664b67L'
p695
g2
((lp696
g4
atp697
Rp698
sS'0x39c57a24f1c5d614ed02531ceb0c50c736c0aab137ac1cL'
p699
g2
((lp700
g4
atp701
Rp702
sS'0x119a3941d7420a710dcd5d7497f898ca75b922f932e02L'
p703
g2
((lp704
g4
atp705
Rp706
sS'0x2deafbd73baf399ef995fe484a671e2a5fd19a70a7fe48e8L'
p707
g2
((lp708
g4
atp709
Rp710
sS'0x1b33fcbd471613269fb6aa000d34c67f54400169b7e67L'
p711
g2
((lp712
g4
atp713
Rp714
sS'0x552b5e02b764e25f6ea143c20af2509d79f8fb1ad76L'
p715
g2
((lp716
g4
atp717
Rp718
sS'0xd39e09d0faf476ce3caab2a4f74a8c2e6325ffa5ec151L'
p719
g2
((lp720
g4
atp721
Rp722
sS'0x1abdb3f204315fc502f3e814d83cddaabd15c30b179ad8455L'
p723
g2
((lp724
g4
atp725
Rp726
sS'0x305fd9a073e6dee8bd1768efd615a203ee786abbc03e19L'
p727
g2
((lp728
g4
atp729
Rp730
sS'0x3438383f3dc27b83c321ea7087e892814c1d64d5fef661017L'
p731
g2
((lp732
g4
atp733
Rp734
sS'0x48960fcb47f91033e479ae8ddf51a30ba413f6ae665694L'
p735
g2
((lp736
g4
atp737
Rp738
sS'0x13925659ebfb15f5936c4691faee6bc70acebc516L'
p739
g2
((lp740
g4
atp741
Rp742
sS'0xe5681e6f7416100db6a092a04ed21ef52b5baaa10fc7L'
p743
g2
((lp744
g4
atp745
Rp746
sS'0x1e07668a8ffca250ce31ac1fede54c70f252b4b28761dbfab2711d55cbL'
p747
g2
((lp748
g4
atp749
Rp750
sS'0x31cbe14995b55be2d9bcdb3d837017c5dec05c32438db504L'
p751
g2
((lp752
g4
atp753
Rp754
sS'0x4a2954027a51e46c43bb04e3eab9d50bcf1bdd01L'
p755
g2
((lp756
g4
atp757
Rp758
sS'0x156c81c8ddbe104a86df3cc7ccddae473675b3612f48L'
p759
g2
((lp760
g4
atp761
Rp762
sS'0x2ad5a454a396e74ead1c04f7cb20d242d92657b93c69d41L'
p763
g2
((lp764
g4
atp765
Rp766
sS'0x1411ce9f97d6bdda2846fabda3c7cc4e129a2d40cb00f808L'
p767
g2
((lp768
g4
atp769
Rp770
sS'0x2251c5839763180903240085276a1e0ef8299538fbf11e5L'
p771
g2
((lp772
g4
atp773
Rp774
sS'0x1264645a137ec84835ab9e80e34f81de9daf78588L'
p775
g2
((lp776
g4
atp777
Rp778
sS'0x20bbb20c8385502c2e3312e51da570ba4f02114c38L'
p779
g2
((lp780
g4
atp781
Rp782
sS'0x972c613e5bc6afabd9a3bf9118db7d0ee761e23dcb732L'
p783
g2
((lp784
g4
atp785
Rp786
sS'0x1cae06331e4b46e7f9f5a214af3bf2a98b542f85cc4d2ec4ddc08927L'
p787
g2
((lp788
g4
atp789
Rp790
sS'0x312ca961c53c5975457e2f7b51623902811468316L'
p791
g2
((lp792
g4
atp793
Rp794
sS'0x8847ee1d8dce27015980842c9d4830c3b9b71091dfL'
p795
g2
((lp796
g4
atp797
Rp798
sS'0x2458e48c9fd5f74e9bc4c6089314c5b2ee93dedaba966fdbL'
p799
g2
((lp800
g4
atp801
Rp802
sS'0x158a02acc35c6e1fe6f5533adb7ff558da4e2c11b75344eL'
p803
g2
((lp804
g4
atp805
Rp806
sS'0xda49771263714893044b711a20874c9e5fe2c86c6ef49aL'
p807
g2
((lp808
g4
atp809
Rp810
sS'0xbd56fcf3253338566b2e71713e47787042b32b86b1853cd56eL'
p811
g2
((lp812
g4
atp813
Rp814
sS'0x191f3e9d2da69492c53b5f9933c1931076b381b68503a922cac4c4eeL'
p815
g2
((lp816
g4
atp817
Rp818
sS'0x7e352c94ce2e3a42b6f3d75ee34dc154e8916df93L'
p819
g2
((lp820
g4
atp821
Rp822
sS'0x2d4f2a0b1e68988c2c0f3790ac501854dae57042b33d435cb8afL'
p823
g2
((lp824
g4
atp825
Rp826
sS'0xa2e3828ba57b64da1ca3b3a6d5fe9fbf3245840397b7ff04L'
p827
g2
((lp828
g4
atp829
Rp830
sS'0x2bddd093da8b5082521f71b86d2b75991954a18c082ea6955befL'
p831
g2
((lp832
g4
atp833
Rp834
sS'0x76f2408e6a8e24be454e48b655072b5f73718334L'
p835
g2
((lp836
g4
atp837
Rp838
sS'0x3ecdda58704bcdd2ad582aa8fd03e5f2ab3976ac6866053L'
p839
g2
((lp840
g4
atp841
Rp842
sS'0x1aa22dda5ebf640be377406039f49679628c473e2891f6b49acefL'
p843
g2
((lp844
g4
atp845
Rp846
sS'0x3b66b6325a82217b7f5625e3102d925f54f177f0f3abca56efL'
p847
g2
((lp848
g4
atp849
Rp850
sS'0xcdd683bd817e88562b5952b7eecfe68e7155f65a8162968227L'
p851
g2
((lp852
g4
atp853
Rp854
sS'0x3c427ef44a560e08abe02b000819e1404abdbd72b812L'
p855
g2
((lp856
g4
atp857
Rp858
sS'0xa6912eff5a0acf63428fa87dbea0d25a821521ce83L'
p859
g2
((lp860
g4
atp861
Rp862
sS'0x4fe6898f1c3e34e2e40fd07e82eecb44673ed5c207a4c1fe763f1L'
p863
g2
((lp864
g4
atp865
Rp866
sS'0x13cce7661e17551cc795ee0f465c400e02288831bc52e90597L'
p867
g2
((lp868
g4
atp869
Rp870
sS'0x9c8b5f408d2ab287a962af9b3e49f719b0b50c2e84be8d27179eL'
p871
g2
((lp872
g4
atp873
Rp874
sS'0x6e13e22d8eaa6b80f4aae5a896af9a98ed5e4126a326817b5L'
p875
g2
((lp876
g4
atp877
Rp878
sS'0x79f9f3f29f2e499e120ab3dfb13eca63cb431d4db43afff488c833L'
p879
g2
((lp880
g4
atp881
Rp882
sS'0x1339158a09acd0829e07e13056678b43e64fbad83b20ed22L'
p883
g2
((lp884
g4
atp885
Rp886
sS'0xf19137061efc6f5b50423250f2299acbf10baf4fcfL'
p887
g2
((lp888
g4
atp889
Rp890
sS'0x2f5935126f8ce7554f00ec6aa67003782da2bfa684e87f6d1fbfL'
p891
g2
((lp892
g4
atp893
Rp894
sS'0x6b1fffdfdbaa23f8b76c9eba49a7e600c39b5aeada4L'
p895
g2
((lp896
g4
atp897
Rp898
sS'0x76c82d3b91f99bb5885b432461832b02b5c90c87662L'
p899
g2
((lp900
g4
atp901
Rp902
sS'0x5df5621b7823eb705cbaff8b40b6c0502a32aae5b9L'
p903
g2
((lp904
g4
atp905
Rp906
sS'0x69fb607b6b6516a6b22004841566ecb2413290e18c0959b2L'
p907
g2
((lp908
g4
atp909
Rp910
sS'0x2107d4323694080bacae168660678ae954544e752861cL'
p911
g2
((lp912
g4
atp913
Rp914
sS'0x4f16995e1c8ce3483f1f94fd72fafae764744cb516L'
p915
g2
((lp916
g4
atp917
Rp918
sS'0x31cfed4f4e1811d18bf8f3ad5f01cde552403744bcd9L'
p919
g2
((lp920
g4
atp921
Rp922
sS'0x23ade116f1c75ce91cf186d80c7515038825b826d9712d4L'
p923
g2
((lp924
g4
atp925
Rp926
sS'0x1798c6eb909b227599fdd024a6fca619ce3ab5070370L'
p927
g2
((lp928
g4
atp929
Rp930
sS'0x80b2c809e49f762063837c112beda4465d2af9ff8eaL'
p931
g2
((lp932
g4
atp933
Rp934
sS'0x15b59fe4fcad423d16a3670c7208331d5d31c12e8a14ddc904b1L'
p935
g2
((lp936
g4
atp937
Rp938
sS'0x1cd9c6e8e2261307b0ab5657f2bb99635404890cb5937fbL'
p939
g2
((lp940
g4
atp941
Rp942
sS'0x62aa74274f76b190594629fcd8bbbee4083758ee4bbe2646aL'
p943
g2
((lp944
g4
atp945
Rp946
sS'0x5d80b408739117fc02e7ed198051b8c84e0b2a9f2L'
p947
g2
((lp948
g4
atp949
Rp950
sS'0x43edab14080e18c5aca2309560a4754d2070835820L'
p951
g2
((lp952
g4
atp953
Rp954
sS'0xbe4a05930665f0a4d2f856d4435e64c7de021a3882a1a5L'
p955
g2
((lp956
g4
atp957
Rp958
sS'0x3065aa76431f07a7e87344a0e0a495e37fa327bacf511a0273a8d6fa0L'
p959
g2
((lp960
g4
atp961
Rp962
sS'0x2e7d7832110d40282015cac7a871a979881340d3c8e5d4ea6b44c44c56e5dL'
p963
g2
((lp964
g4
atp965
Rp966
sS'0xdd0d4096f0b48b4eeacfb67dc84aa10a6d1e719fL'
p967
g2
((lp968
g4
atp969
Rp970
sS'0xced0c93ca7a2954b70ce129da378251378aae100b78debL'
p971
g2
((lp972
g4
atp973
Rp974
sS'0x436cdf65a97a4966676906e8f514c7e70f1b840a2eL'
p975
g2
((lp976
g4
atp977
Rp978
sS'0xab74202ffefd3431c279ac6b3626b4bb742efd3009d59381a9L'
p979
g2
((lp980
g4
atp981
Rp982
sS'0x4fca8a2fd7e749b4db3e2d3f83b91d860a10c022e5a897cL'
p983
g2
((lp984
g4
atp985
Rp986
sS'0xbeabb4edbcbd2cc14c97dd50cf2f888c2433880c760cb462cL'
p987
g2
((lp988
g4
atp989
Rp990
sS'0x1341d32f6ec0251cbb42b176925b05e467d01b7be0b5bdL'
p991
g2
((lp992
g4
atp993
Rp994
sS'0x29ccdbfd9b1df7edd1b28e7e73fb8d395c3c634e7d6677b53e9L'
p995
g2
((lp996
g4
atp997
Rp998
sS'0x17833bbea741a7c3b30860843e9c4f462490e3a28de62e4650faL'
p999
g2
((lp1000
g4
atp1001
Rp1002
sS'0x11484c29b2ca61764ba1344a8087fb4464e35eafba613d407a0548b3L'
p1003
g2
((lp1004
g4
atp1005
Rp1006
sS'0x75340e5eb2c7f36700acd64cc028f68c2ae87058efd3aL'
p1007
g2
((lp1008
g4
atp1009
Rp1010
sS'0x4e73bad47cc65c43b624ceb5fe141b71611087d1a67913eac7dfd015ced014L'
p1011
g2
((lp1012
g4
atp1013
Rp1014
sS'0x1a46fd3310e4f1d84122410fa41ae15a999422c1f412a4da8397347bc82afL'
p1015
g2
((lp1016
g4
atp1017
Rp1018
sS'0x699a2775f27cdcbd1d2b72616029b86375978e3d059c4f4d8L'
p1019
g2
((lp1020
g4
atp1021
Rp1022
sS'0x21a856cc18bc757fdd7f092dcee9a74f428ae494e522d1116fb23cca70L'
p1023
g2
((lp1024
g4
atp1025
Rp1026
sS'0xd5ee985fd00bf8cb74be31cb3aede3e5e2df1155b2381a654d78873fe1fL'
p1027
g2
((lp1028
g4
atp1029
Rp1030
sS'0x8ebdbcf320a107661e3f6150319b487bf4258560631215b37L'
p1031
g2
((lp1032
g4
atp1033
Rp1034
sS'0x38ddb73a7abcdec835687fd1edf947f61c2366e536211ba21ddc26L'
p1035
g2
((lp1036
g4
atp1037
Rp1038
sS'0x1b84bce70fb57e5858e78655108138d345b4ad2021d467b0a28adL'
p1039
g2
((lp1040
g4
atp1041
Rp1042
sS'0x20e37c0d18cec9e8a1129e4342b832bf222d4aea7e7784e67L'
p1043
g2
((lp1044
g4
atp1045
Rp1046
sS'0x117c9ee3c8d90b4a0eb7ac6f50c42f26864bdd6bbd9569L'
p1047
g2
((lp1048
g4
atp1049
Rp1050
sS'0x302175d922ed7c2a2d3e6c3703655c3d8bccd2b64L'
p1051
g2
((lp1052
g4
atp1053
Rp1054
sS'0xa84c0a79abe1bde87b1aa2e35205b36bc3e3b9a34L'
p1055
g2
((lp1056
g4
atp1057
Rp1058
sS'0x468a0067accf259f437d2a06218199fd53167b1ba70a0L'
p1059
g2
((lp1060
g4
atp1061
Rp1062
sS'0x141be1ac4b2c49b26952144fd6849bd35f80aa39L'
p1063
g2
((lp1064
g4
atp1065
Rp1066
sS'0x26d9b3542f1476b4461ccd3833c7d696ba2a1898f5c553aebL'
p1067
g2
((lp1068
g4
atp1069
Rp1070
sS'0x617d3ea22f568332a792b671755775e387443fd40cfa266L'
p1071
g2
((lp1072
g4
atp1073
Rp1074
sS'0x293bdf438e6093fff78e8a7c16c8b44e3e91b51b45L'
p1075
g2
((lp1076
g4
atp1077
Rp1078
sS'0xe472a044969e39d808232eae0156651d2ef3d34ea4cd04b8287L'
p1079
g2
((lp1080
g4
atp1081
Rp1082
sS'0x7a14bdecfae826c06832605e4c8ff3131a0c820eba159dd681237f1L'
p1083
g2
((lp1084
g4
atp1085
Rp1086
sS'0x35627d681c6bcb3a4e5a8a1b921aba149e4b475d4da1791870e4bc0bbL'
p1087
g2
((lp1088
g4
atp1089
Rp1090
sS'0x11e796ee520b502175185f6778a3391cd04f92f1b3bdb966e64ddL'
p1091
g2
((lp1092
g4
atp1093
Rp1094
sS'0x118f764c3f749c54c82f08b8c57af8308cd897724fe3eb50c443L'
p1095
g2
((lp1096
g4
atp1097
Rp1098
sS'0x19256112fbadc8f7c3aa9c076f4bea67887801fdaaL'
p1099
g2
((lp1100
g4
atp1101
Rp1102
sS'0x264aaf5de8d2adbcf59e472dc731da034ec7c84e599f00L'
p1103
g2
((lp1104
g4
atp1105
Rp1106
sS'0x2442a0dfc0af66130665a5e61ed40995994776c8bL'
p1107
g2
((lp1108
g4
atp1109
Rp1110
sS'0x186be9d2d9831dfe7a5b039152a1c45acf174b488aL'
p1111
g2
((lp1112
g4
atp1113
Rp1114
sS'0xb80205096fe9d12b8cc60a730e4961ef01e8dde0420e4ac84L'
p1115
g2
((lp1116
g4
atp1117
Rp1118
sS'0x1ea5f57bb962726233d057500947030a0abe8ec7b8f8L'
p1119
g2
((lp1120
g4
atp1121
Rp1122
sS'0x21e5978d2b4eb4f52fde85eb95cc5fdaa92db5875df9cL'
p1123
g2
((lp1124
g4
atp1125
Rp1126
sS'0x2d425b261b1293ff868aab876bc82c2a6278b5789fb352726d4aL'
p1127
g2
((lp1128
g4
atp1129
Rp1130
sS'0x91812a3332752fe527fa83af0e248081ebb1a9cb78f268824acL'
p1131
g2
((lp1132
g4
atp1133
Rp1134
sS'0x76c385d19acf9fc994838d9ae4a060d97a0654fL'
p1135
g2
((lp1136
g4
atp1137
Rp1138
sS'0x2c095552c94ac8dec56c91ba293c5b69093152b9170483cefL'
p1139
g2
((lp1140
g4
atp1141
Rp1142
sS'0xaf1857308d95bc0bd964f87ed9e0ec68c9ce87abee03c797c71730960bcL'
p1143
g2
((lp1144
g4
atp1145
Rp1146
sS'0x27e9b70701df031447df06b4cc75f9c942ba10a7d5e4b013bL'
p1147
g2
((lp1148
g4
atp1149
Rp1150
sS'0x30e114f2f20c12200b0bd845b2a8c5b8ccdbe66499301c524b6bd1deL'
p1151
g2
((lp1152
g4
atp1153
Rp1154
sS'0x3743c34945998cd5504017b94102015f3d3723892f2c08509e4ceL'
p1155
g2
((lp1156
g4
atp1157
Rp1158
sS'0x22f0856b6731bef23b1355b43e113c7a29de784dd75b4f7e72fL'
p1159
g2
((lp1160
g4
atp1161
Rp1162
sS'0x83e6cc43ac1af437ab4bb87def8d0cbd4476ebffc6L'
p1163
g2
((lp1164
g4
atp1165
Rp1166
sS'0x1dc4459ee321a923c74c2f7231adf71994799b428ddc886L'
p1167
g2
((lp1168
g4
atp1169
Rp1170
sS'0x191a8c4e1cc23e4a667d0e71db5b7612b01cdea6af81f2d3e82e22dd2a0L'
p1171
g2
((lp1172
g4
atp1173
Rp1174
sS'0x98e2e0a51c1cc8eb10d1dd5073a0f4909f58ea35e3b4L'
p1175
g2
((lp1176
g4
atp1177
Rp1178
sS'0x3136e0e2be224f8a7bf23b0145c3cbc5a1d328cc0afd38e800b29a6b2bL'
p1179
g2
((lp1180
g4
atp1181
Rp1182
sS'0x13112623d2c1a16628ee1661064d5920cfd8b335092e7aL'
p1183
g2
((lp1184
g4
atp1185
Rp1186
sS'0x3e1d5ef7d39aface3362cca49d719fed50e55f9e18bc697436L'
p1187
g2
((lp1188
g4
atp1189
Rp1190
sS'0xb5dd502343264b5b50148dba2cf5a746c930d88f1899148295L'
p1191
g2
((lp1192
g4
atp1193
Rp1194
sS'0x6086d2150aaacb08c17082c64378c59d40c6ea8ac9c0845L'
p1195
g2
((lp1196
g4
atp1197
Rp1198
sS'0x117c70ca2f0597ab56afbdd8a04552f9124093a98eddf7ca4a68b3aL'
p1199
g2
((lp1200
g4
atp1201
Rp1202
sS'0x295f6e63e7bf845ad6b3fc466ac61acd4eb43fc9b66a031e7a46L'
p1203
g2
((lp1204
g4
atp1205
Rp1206
sS'0xfe93b5cbfc04ee80e81047c9247d25a87d8517403188cbf26L'
p1207
g2
((lp1208
g4
atp1209
Rp1210
sS'0x6c309cfd62a55c76c6a62ac041b0f9b5209735bc9aeL'
p1211
g2
((lp1212
g4
atp1213
Rp1214
sS'0x1c05175bfd75395a6e96d8b4dc39df2db27a06809db47L'
p1215
g2
((lp1216
g4
atp1217
Rp1218
sS'0x310489b52a510c5b31fa378a76e89df852fd23217698ad86L'
p1219
g2
((lp1220
g4
atp1221
Rp1222
sS'0x7fd39b77a40dc8e60840bdc8d4b6fece74798f8f8c92d8965L'
p1223
g2
((lp1224
g4
atp1225
Rp1226
sS'0x678122d5508f8d6f6cffd92d1eb849f03e70554d4570a000b9L'
p1227
g2
((lp1228
g4
atp1229
Rp1230
sS'0x670876876574d188324e3d60ae8b578010b937c82249L'
p1231
g2
((lp1232
g4
atp1233
Rp1234
sS'0x1d7fd0810b8a23c225883e4d2863e86caad2c1f90a5L'
p1235
g2
((lp1236
g4
atp1237
Rp1238
sS'0x2bbcfb293877abdd65a21b2a8574377e8ab3d036eL'
p1239
g2
((lp1240
g4
atp1241
Rp1242
sS'0x3e943d4f1459942f7dc95712e5526f99d154f0cf56fcae82L'
p1243
g2
((lp1244
g4
atp1245
Rp1246
sS'0x116812bfbeee600d09fb7922d45ad2eaa539f65260d7c1dccL'
p1247
g2
((lp1248
g4
atp1249
Rp1250
sS'0x1ad9942c83c5b1d0fa3ef3ebac1eb128408e6bacc7ba81eabfdL'
p1251
g2
((lp1252
g4
atp1253
Rp1254
sS'0x69551680ff8aedc9f6781f0aa0856c6005955b98a4c9ca6ea15aL'
p1255
g2
((lp1256
g4
atp1257
Rp1258
sS'0x4993e9eb8ee768b351f45733de9bcbd355ed81da13L'
p1259
g2
((lp1260
g4
atp1261
Rp1262
sS'0x101ff32c570808076dd7fcac52e7caa93d4815136b9b87L'
p1263
g2
((lp1264
g4
atp1265
Rp1266
sS'0x11ab6c290eb3198728e3700242a2886d600e3a677a9L'
p1267
g2
((lp1268
g4
atp1269
Rp1270
sS'0x956f4ef1ca622ab927bd01694e0a06c2d4128d0b493L'
p1271
g2
((lp1272
g4
atp1273
Rp1274
sS'0x2b960d0d982a9772462770142896a16abcd8400f99d564f211L'
p1275
g2
((lp1276
g4
atp1277
Rp1278
sS'0x4f5710c44e3ffa98f5fc143d4160a564709d48bcfd6e626059ce362adL'
p1279
g2
((lp1280
g4
atp1281
Rp1282
sS'0x14d150bfced6d276a40e99feb5a068db892137d4cL'
p1283
g2
((lp1284
g4
atp1285
Rp1286
sS'0x42f502c4e80e2c5913d8bc052d341eba9219d315f0d7b26L'
p1287
g2
((lp1288
g4
atp1289
Rp1290
sS'0x5e7179f3b7e5992eccfe1cf2ac44eb30542989f80da3474db372eaaL'
p1291
g2
((lp1292
g4
atp1293
Rp1294
sS'0x145661c6c303b3fcb226bdccafff53a278e448bb859139L'
p1295
g2
((lp1296
g4
atp1297
Rp1298
sS'0x8e9e6a5fdd312f787da7c9852a3ad586327ffe190d528735L'
p1299
g2
((lp1300
g4
atp1301
Rp1302
sS'0x4bbfc46cb67914c54586aba0633df80de431e585ed7ed414L'
p1303
g2
((lp1304
g4
atp1305
Rp1306
sS'0xc4e7d1f7590e978f4166da94dcae3efadbfb227aff4c73e8L'
p1307
g2
((lp1308
g4
atp1309
Rp1310
sS'0x32cdb7130b287454a7895bfb46af6659ca9c8426ec860cf9c5575dd9L'
p1311
g2
((lp1312
g4
atp1313
Rp1314
sS'0x1b62b7d34106de5c38e00a2b85686b16e13886c8aac29b125L'
p1315
g2
((lp1316
g4
atp1317
Rp1318
sS'0x86aa40bf17b13760edecf962162d6fe05ebe81ece493a8fL'
p1319
g2
((lp1320
g4
atp1321
Rp1322
sS'0x49cafd44482916d75f1fd39d514001d077c5c5bbf58fL'
p1323
g2
((lp1324
g4
atp1325
Rp1326
sS'0xf8ccbd1bc37078a821182aef19321b501da8704fbcL'
p1327
g2
((lp1328
g4
atp1329
Rp1330
sS'0x61cd23c9b9f28f56a1c9b5ffa32738af95755d8630d995L'
p1331
g2
((lp1332
g4
atp1333
Rp1334
sS'0x7328ae5525e972f410d8fc5580000635bf0c5bc20064481f40fe2aL'
p1335
g2
((lp1336
g4
atp1337
Rp1338
sS'0xb866659cd0defee9e39ebc2b57756d5b3f2884126eec95dd8f1b3bdda5446L'
p1339
g2
((lp1340
g4
atp1341
Rp1342
sS'0x12e73438bbfd751fdf43252f69ac9314b7a61e88f41dbL'
p1343
g2
((lp1344
g4
atp1345
Rp1346
sS'0x659a2609776dbe4e04193547b2d3b3606848cac4f5299c2c1L'
p1347
g2
((lp1348
g4
atp1349
Rp1350
sS'0x350fe2cb9cae2b0a5f7086ebb5513e5117bdc353392L'
p1351
g2
((lp1352
g4
atp1353
Rp1354
sS'0x504aba48c5b84dec02a3106fd05ccb9bc7fc3d4637ce5f5500L'
p1355
g2
((lp1356
g4
atp1357
Rp1358
sS'0xb975f71daa6ec23ca05ada01da2ad62a852b6f55ddba323c12a24fc6f31L'
p1359
g2
((lp1360
g4
atp1361
Rp1362
sS'0x113d80a526bd97bb02a34630631d07d8b8e2bfc74a66eL'
p1363
g2
((lp1364
g4
atp1365
Rp1366
sS'0x34ceb0cfd99c9561789b28f0ee906c0ed95a39433033bL'
p1367
g2
((lp1368
g4
atp1369
Rp1370
sS'0x18917743dcfdaee95615657f630120dfea570975cad0af108L'
p1371
g2
((lp1372
g4
atp1373
Rp1374
sS'0x8d0c8f95e071bd81949be35afc3c33c068ca1231f58c39ca31fdc33eL'
p1375
g2
((lp1376
g4
atp1377
Rp1378
sS'0x1e47f6ee047e7f6adfd6481e4ed1d23aa95d1bbafL'
p1379
g2
((lp1380
g4
atp1381
Rp1382
sS'0x2e36963484e5e36d7f8907efc768862f2c78512403ffa4a76aL'
p1383
g2
((lp1384
g4
atp1385
Rp1386
sS'0x364bd62e7873153b2d6d54cde9b978d03e220d6c4c383d9eL'
p1387
g2
((lp1388
g4
atp1389
Rp1390
sS'0x6bbe4ac30d5de955370701f3765efcdbdd3ef7339L'
p1391
g2
((lp1392
g4
atp1393
Rp1394
sS'0x12e4ebd4117e77765f10a76bec5d2298aeefdade3dL'
p1395
g2
((lp1396
g4
atp1397
Rp1398
sS'0x133ce60363153e3f95580639883fd03162292757c0L'
p1399
g2
((lp1400
g4
atp1401
Rp1402
sS'0x779c6e439f7cb0f82a1ef299d99cbc7eed36fbfc40973L'
p1403
g2
((lp1404
g4
atp1405
Rp1406
sS'0x7bc4c8d315b77d7d4de5d73b3e4f8dc86bf68df135L'
p1407
g2
((lp1408
g4
atp1409
Rp1410
sS'0x32496c99cb8cb5143a8bc37f3f59df3c0cae84271753ed26L'
p1411
g2
((lp1412
g4
atp1413
Rp1414
sS'0x10fc78b03bad2b96c7bb0d81367104c3626da1b8372bL'
p1415
g2
((lp1416
g4
atp1417
Rp1418
sS'0x210592f91f5f192f8d508343c38f1b884ac0a7852L'
p1419
g2
((lp1420
g4
atp1421
Rp1422
sS'0x4f250bdfd4df1f7d127a62150e037f42e65c8649049d5f60e97dfd3L'
p1423
g2
((lp1424
g4
atp1425
Rp1426
sS'0x574030e1b8f228238617608c4342703ac1f5bf769L'
p1427
g2
((lp1428
g4
atp1429
Rp1430
sS'0x2fabee9f39e59dfb4c9c34dd423298ea7c7ab60d98c5a247635dL'
p1431
g2
((lp1432
g4
atp1433
Rp1434
sS'0x1af4bb417e88d73032cc82f59b7a25126ac86deb098e0L'
p1435
g2
((lp1436
g4
atp1437
Rp1438
sS'0x742017ca0b8603d3b88f83ddde60235be4d5e4cdc7459cbcf0b1298d14L'
p1439
g2
((lp1440
g4
atp1441
Rp1442
sS'0x1fe62d93c049d134eb438721785bfc671cebffa677e967L'
p1443
g2
((lp1444
g4
atp1445
Rp1446
sS'0x2d2042c8cee4d9c7571dacb4bfc846fc0265cdfdcb089L'
p1447
g2
((lp1448
g4
atp1449
Rp1450
sS'0x1316aea8012de5cb4f1e5e80d4d62eda27f9854c8cb90d8b87d0dL'
p1451
g2
((lp1452
g4
atp1453
Rp1454
sS'0x6c01de81df6448d91162f114e713c1876368bdf762ae1L'
p1455
g2
((lp1456
g4
atp1457
Rp1458
sS'0x1a9c8a6d2c1d2a6b97efaf5885fe4bacd3271250d6L'
p1459
g2
((lp1460
g4
atp1461
Rp1462
sS'0x36f91b7abff2099105891a985f3d93406e8311e1fe7832987aL'
p1463
g2
((lp1464
g4
atp1465
Rp1466
sS'0x2b085ff2ccd1432045c771a5dd79d87ecb76a254e42L'
p1467
g2
((lp1468
g4
atp1469
Rp1470
sS'0x4789f94d96ff5d165b470feae1d22d95f96ba8fb74aa4951cdf0e1a0d0L'
p1471
g2
((lp1472
g4
atp1473
Rp1474
sS'0x452582dad9fafc83cde568d867152c3695daf25eae1709L'
p1475
g2
((lp1476
g4
atp1477
Rp1478
sS'0x2169c67c531f0e71a0ba6beae460f98300b2459b8911e502e78L'
p1479
g2
((lp1480
g4
atp1481
Rp1482
sS'0xa0907b7e8eb8be8b7dbcb22deedbc039326632647ef2d7ac55ad16L'
p1483
g2
((lp1484
g4
atp1485
Rp1486
sS'0x127ff5c75f2d76f8795a2a652ebe60f4a2e860e057d02686acL'
p1487
g2
((lp1488
g4
atp1489
Rp1490
sS'0xa8b8db5c0154ae89b260d10016ed76ded87c9e9fc269316c552636dL'
p1491
g2
((lp1492
g4
atp1493
Rp1494
sS'0x4b6287022f3d7676a24021341ba1462c68403386fd3cL'
p1495
g2
((lp1496
g4
atp1497
Rp1498
sS'0x40c147da5c4fb69373601394d2ffe619f69f806d0e2f90c5e8f0742e4c6L'
p1499
g2
((lp1500
g4
atp1501
Rp1502
sS'0x1372a2bbc40ecd7ea0c4ea2f9fd06963cd93025e72fL'
p1503
g2
((lp1504
g4
atp1505
Rp1506
sS'0x22c8ff62f266fcc69edf194233d0563f1bb85b18347L'
p1507
g2
((lp1508
g4
atp1509
Rp1510
sS'0x4735ad689d0285c61b2d29e15e0033a99c7f5971L'
p1511
g2
((lp1512
g4
atp1513
Rp1514
sS'0x6b4095c5bb38ea9a08f556b3c26303148d2193d3601f3a78f0L'
p1515
g2
((lp1516
g4
atp1517
Rp1518
sS'0x2ce1edbb6878783c151fbe26cbcf5f46d58948c9fb7d72aaL'
p1519
g2
((lp1520
g4
atp1521
Rp1522
sS'0x63343b6b0999afc07b7aab69bd37b16250b06b969abL'
p1523
g2
((lp1524
g4
atp1525
Rp1526
sS'0x8b4ffc51bf86da2402bbb2ccbf6cb75f3b10e193067a092c7278a0L'
p1527
g2
((lp1528
g4
atp1529
Rp1530
sS'0x9703176c61fbaa85d459e61d6db3214634eb9e998cfbaL'
p1531
g2
((lp1532
g4
atp1533
Rp1534
sS'0x8f03cbddadb165e58075947517a848436f1022a1a93ec4e0873bL'
p1535
g2
((lp1536
g4
atp1537
Rp1538
sS'0x2fd50c666d9b562a8bd6e2990dc307ef984d1c5b5d4d8c5L'
p1539
g2
((lp1540
g4
atp1541
Rp1542
sS'0x23754ba364db9c713840b0c5c9c9b5b6a5b6f4afb2ca93b977ca3725L'
p1543
g2
((lp1544
g4
atp1545
Rp1546
sS'0x1629c98fe70980a331cf2f5a7a9f6ef44e0e3770be160aa2L'
p1547
g2
((lp1548
g4
atp1549
Rp1550
sS'0x17a6f1332e91565349f8e152d530f4016a0022c0a71e60ccL'
p1551
g2
((lp1552
g4
atp1553
Rp1554
sS'0x5d6c1ee16b1b83a19142d429eb7563752e095589816c49eL'
p1555
g2
((lp1556
g4
atp1557
Rp1558
sS'0x17610e11516c0098634f220162a8cea54c5e9b8525b8L'
p1559
g2
((lp1560
g4
atp1561
Rp1562
sS'0x9114f82cbbc5b1915de3e652cd2bc0eef5ef43b16ddeL'
p1563
g2
((lp1564
g4
atp1565
Rp1566
sS'0x67a0fcaf9d6ff1cc17667c9ab3e2dcadba868cd9ebL'
p1567
g2
((lp1568
g4
atp1569
Rp1570
sS'0x12029269ed25a267e85fcb63facef96c6d7288b14ed1L'
p1571
g2
((lp1572
g4
atp1573
Rp1574
sS'0x71a88a33011d20fae39483e2c1d5cb1fa498db8705dc943ed96L'
p1575
g2
((lp1576
g4
atp1577
Rp1578
sS'0x7f3678a6c013cf3f6ee1944eb439da07737187aa737fbL'
p1579
g2
((lp1580
g4
atp1581
Rp1582
sS'0x18c3e041374afe3ca352c52a62a8a8cd5f649f36ec3L'
p1583
g2
((lp1584
g4
atp1585
Rp1586
sS'0x2ab39ecf1536dc22e55b269c1be99ef66f9cdecd3L'
p1587
g2
((lp1588
g4
atp1589
Rp1590
sS'0xb87659bf440a415d9504cd565ab3380cedf1d63d32632090a96a51f43L'
p1591
g2
((lp1592
g4
atp1593
Rp1594
sS'0x5072ed0d3777d58714d08d262692cf403b291ca8abL'
p1595
g2
((lp1596
g4
atp1597
Rp1598
sS'0x3d03263469570add18d90535d16f7257199f6e95d090f6L'
p1599
g2
((lp1600
g4
atp1601
Rp1602
sS'0x7189805597af350d8977afe8f6fcd3d5075c8146d0db14fL'
p1603
g2
((lp1604
g4
atp1605
Rp1606
sS'0x723fd6331c4906bcbe3fbdf8ad5ee4add6eef65ea9dL'
p1607
g2
((lp1608
g4
atp1609
Rp1610
sS'0x82ee99c6b96d13d94c8700200adc717bc70362506L'
p1611
g2
((lp1612
g4
atp1613
Rp1614
sS'0xfc86706252ebb1959016db17d025528fd2af4ea0fe6e91f509eL'
p1615
g2
((lp1616
g4
atp1617
Rp1618
sS'0x19d25d8fdeb5fa218a95bbfd7885a0a921a02bfd49eb99eL'
p1619
g2
((lp1620
g4
atp1621
Rp1622
sS'0x2ae1b89326ae328e7f946c6414d6aa69cc87f74b971L'
p1623
g2
((lp1624
g4
atp1625
Rp1626
sS'0x21de0cadceaf0e04bdf69b7060dbf554c368c1d092f8386f4L'
p1627
g2
((lp1628
g4
atp1629
Rp1630
sS'0xbf3a2be9622e48d15375604b5c1177f09999238970811965a3052d53be4L'
p1631
g2
((lp1632
g4
atp1633
Rp1634
sS'0x9f3ddd46b70c5c7d3a406549dc860d796a5e026cf83L'
p1635
g2
((lp1636
g4
atp1637
Rp1638
sS'0x79475819f5947968fc7d5f3bbe9427e9b1eaa5fe8b0ca8f2323c861dL'
p1639
g2
((lp1640
g4
atp1641
Rp1642
sS'0x3389fc4e4e99cae5c83fa66b7eeb9fa824fcf46bf181163a78L'
p1643
g2
((lp1644
g4
atp1645
Rp1646
sS'0x104b06fba604060aabdfdff832fe993ebbdbe483a3a2076c3bee7986L'
p1647
g2
((lp1648
g4
atp1649
Rp1650
sS'0x6d4d28ac380ca48d5c30031a1fcfc955b0c2070ccbe48L'
p1651
g2
((lp1652
g4
atp1653
Rp1654
sS'0xeadc71b93e42824bada099c7657277e8a841895d6a577ac8L'
p1655
g2
((lp1656
g4
atp1657
Rp1658
sS'0x5df7d95ac1d1c9efc192510e0e704f566c5a906852L'
p1659
g2
((lp1660
g4
atp1661
Rp1662
sS'0x2102e83658c697a3e64d6c37e47d769262e5b24f05aL'
p1663
g2
((lp1664
g4
atp1665
Rp1666
sS'0x298d5ac4b0c634c591ffad65c7b43dc9783944c9ddcL'
p1667
g2
((lp1668
g4
atp1669
Rp1670
sS'0x26e519a7df7bff4929a2e0e6b759f3cd70b19e1df0f2d1aL'
p1671
g2
((lp1672
g4
atp1673
Rp1674
sS'0x1658c99ca7facba14f3c62b887d519a3a4b6feb671L'
p1675
g2
((lp1676
g4
atp1677
Rp1678
sS'0x28709cbca0cd61f20c749613d9e85aec68f71690c33ee4f1fbf6L'
p1679
g2
((lp1680
g4
atp1681
Rp1682
sS'0x8876fe80513c5c221d09dead0d4890cd97cd68b41bf8c3L'
p1683
g2
((lp1684
g4
atp1685
Rp1686
sS'0x4332ad08fbe2e2e174c3a4400faf163dcdc092ba872f60L'
p1687
g2
((lp1688
g4
atp1689
Rp1690
sS'0xb2342297105d00b100c847caa88eb8a066d8adb85d4f04cb4bL'
p1691
g2
((lp1692
g4
atp1693
Rp1694
sS'0x498d3606f15030ae1b39d1d90524f49b7276df480fe56a1b410L'
p1695
g2
((lp1696
g4
atp1697
Rp1698
sS'0x337e8186ca523f08fc9c041bdeeaff23a583cf690a6d3126e61527L'
p1699
g2
((lp1700
g4
atp1701
Rp1702
sS'0x143a8f18b3e326cfa3d0bc28fd6bb45d4e56287514a8cca8fc6738L'
p1703
g2
((lp1704
g4
atp1705
Rp1706
sS'0x4e5cfdedfbbbdaca5ad3c23ff9fb4d5281f0f3245b3c43d438ea70eL'
p1707
g2
((lp1708
g4
atp1709
Rp1710
sS'0x35857e7f84e83f68f2d518ef034d850ffffe9818827aa38cf4114bL'
p1711
g2
((lp1712
g4
atp1713
Rp1714
sS'0x409e0811aaa98a29ea42f040d25342289d6fd77166ecacfL'
p1715
g2
((lp1716
g4
atp1717
Rp1718
sS'0x1d502857ddc39117314105f4369645d30b09c617cfL'
p1719
g2
((lp1720
g4
atp1721
Rp1722
sS'0x1853d747c0d9e85f19f30193e180fa12ce61d144050f5L'
p1723
g2
((lp1724
g4
atp1725
Rp1726
sS'0x759fa4500f15638ad6327bb64c13d08d216d9cfc9a67L'
p1727
g2
((lp1728
g4
atp1729
Rp1730
sS'0x79e00c40b06f49b79692de79533c41350d9fa53bL'
p1731
g2
((lp1732
g4
atp1733
Rp1734
sS'0x28d469127c3d976a40d3a29d892f2987b2ca5dbd106722eL'
p1735
g2
((lp1736
g4
atp1737
Rp1738
sS'0x2c0ca8e5b5a585a20bd006186a3aac0e1fd1ddd6f6acd3L'
p1739
g2
((lp1740
g4
atp1741
Rp1742
sS'0x39440bf80389bcc2819ae5b7e1791cce4b4eadf42b7e64e38a50cL'
p1743
g2
((lp1744
g4
atp1745
Rp1746
sS'0x37ef6be2dcf359a89142091ff7e96db313a3ad26530a4ec434480dacL'
p1747
g2
((lp1748
g4
atp1749
Rp1750
sS'0xdd674030936c813eb3e222f5b50d3fb0681a3b7cefL'
p1751
g2
((lp1752
g4
atp1753
Rp1754
sS'0xa6158bdba9c5f64668468192ceb8e8131525ed63fcd965L'
p1755
g2
((lp1756
g4
atp1757
Rp1758
sS'0x1b928d76138a921c84946b1b4884f40634229b415d69b1d1bL'
p1759
g2
((lp1760
g4
atp1761
Rp1762
sS'0x15970713d937d74cca23c5dc73777072e22286b0aa4fL'
p1763
g2
((lp1764
g4
atp1765
Rp1766
sS'0x568d54c4a52dce38ee8bd34d1f0a81ebbde5ffda7a5cf00L'
p1767
g2
((lp1768
g4
atp1769
Rp1770
sS'0x125676c3d4e239ceae7c1edceaae7217e6f52acf5d26a0aL'
p1771
g2
((lp1772
g4
atp1773
Rp1774
sS'0x183517bab5548014c6199e070370696350e306b9b991L'
p1775
g2
((lp1776
g4
atp1777
Rp1778
sS'0x4c26794e228729d2a80e2004e9fda56ada7ddc21a9395dL'
p1779
g2
((lp1780
g4
atp1781
Rp1782
sS'0xd69c3e82c5d62178060182680445e5824ba5c681L'
p1783
g2
((lp1784
g4
atp1785
Rp1786
sS'0x661a5f522c9c16814440dcc46a65f6c28a871c2c3178c659463f1dabd92a51L'
p1787
g2
((lp1788
g4
atp1789
Rp1790
sS'0xb8ca2f204c1d546daca1c303bc83b0bf5906642c7c484fL'
p1791
g2
((lp1792
g4
atp1793
Rp1794
sS'0x538efa7344906fe66ef4edbbfe9435e5969b1712dL'
p1795
g2
((lp1796
g4
atp1797
Rp1798
sS'0x2198540c3854c39fe611ad4d3c1b2fc727529afe05L'
p1799
g2
((lp1800
g4
atp1801
Rp1802
sS'0x1820ea9c75133911409306aa80f39b6b4b0eb621eaL'
p1803
g2
((lp1804
g4
atp1805
Rp1806
sS'0x664c7d13d5d3d109b2c55398c7faf638775ed6db6da7a9ce93bL'
p1807
g2
((lp1808
g4
atp1809
Rp1810
sS'0x23f653ba235aeac7bd361c3b129376fa910437c5f3befce504f83L'
p1811
g2
((lp1812
g4
atp1813
Rp1814
sS'0x6d0aada6958b29e876a48182bd3b873aaca3f1c3f3d27d76L'
p1815
g2
((lp1816
g4
atp1817
Rp1818
sS'0x2856c9f9a7ccb336c5dd40635478f9f936cf4549b36dL'
p1819
g2
((lp1820
g4
atp1821
Rp1822
sS'0x1b79bff37065cf9ba77f527d753e2a5410d8247fb51L'
p1823
g2
((lp1824
g4
atp1825
Rp1826
sS'0x3318a3b6a690406338fb3a12ae1e9a07dd1463aa8f6e66c9cL'
p1827
g2
((lp1828
g4
atp1829
Rp1830
sS'0xbf980892755e5bd21df43a313ad93b828aef080cc5ef7c5dL'
p1831
g2
((lp1832
g4
atp1833
Rp1834
sS'0xe8f17444a8bad2c79599bc7bf03fa4fc99eb71320bafcb0L'
p1835
g2
((lp1836
g4
atp1837
Rp1838
sS'0x11b546ddb27b0cb9639d3bc3de0d569f742ceb41f5912b21ada19decL'
p1839
g2
((lp1840
g4
atp1841
Rp1842
sS'0xe33f4d462ad776acea40fcddc30221035adfb69f601ce188L'
p1843
g2
((lp1844
g4
atp1845
Rp1846
sS'0x15d005414cf9000894d300fc67ea74f94e035ceed9c555e5L'
p1847
g2
((lp1848
g4
atp1849
Rp1850
sS'0x13e8294f3c9310c09566427f841eb9167ee72b1d0c5L'
p1851
g2
((lp1852
g4
atp1853
Rp1854
sS'0xce71f16730ee3fb14456b450cbd8a9ef30fb9ce3148bb355515698dfcL'
p1855
g2
((lp1856
g4
atp1857
Rp1858
sS'0xe4736c2689baa60c53df9d27902e3eb86ed553180af241L'
p1859
g2
((lp1860
g4
atp1861
Rp1862
sS'0xf502aef6b3cd16c22a5fdf7aa995fa6f9c3ba66ef5a5c37390d95b4f54L'
p1863
g2
((lp1864
g4
atp1865
Rp1866
sS'0x5de12c37ea1cc6b2f971b897f67bec8fbf36cd8b27c5L'
p1867
g2
((lp1868
g4
atp1869
Rp1870
sS'0x12530928ea69556f02f74178521332036ee0b8844391612387L'
p1871
g2
((lp1872
g4
atp1873
Rp1874
sS'0x1e938523fc639cb0b6929b8dfb2d15095afd69d5319e4d8bc031f04aL'
p1875
g2
((lp1876
g4
atp1877
Rp1878
sS'0x1b4837e99976af043b7b9c07020fdc15925330be7be137a79be9L'
p1879
g2
((lp1880
g4
atp1881
Rp1882
sS'0x134dff1d510b0f387d12936c5a8d5f67f4807213892d27a4L'
p1883
g2
((lp1884
g4
atp1885
Rp1886
sS'0x6c775cc4035a6ace4d8d06e4ab741c9f8f58cc3d141afL'
p1887
g2
((lp1888
g4
atp1889
Rp1890
sS'0xf7f2810b059c00d600743704c4e9d4a3d7bd26a6c72be01ee4bf8f0c585bL'
p1891
g2
((lp1892
g4
atp1893
Rp1894
sS'0x20bcd618baab64774b6a1f7cf9a1c451fb91b005e41L'
p1895
g2
((lp1896
g4
atp1897
Rp1898
sS'0x581edeeac01f7b48a2e928e2eb20240340b1e38052062d1089L'
p1899
g2
((lp1900
g4
atp1901
Rp1902
sS'0x8e43f1b00fafd016b7717eb5577670bdffdd6fbbL'
p1903
g2
((lp1904
g4
atp1905
Rp1906
sS'0x11b2c122c7e8ff5e6b738fbe4a4f79fdae1340a5db17bade17f64b821aL'
p1907
g2
((lp1908
g4
atp1909
Rp1910
sS'0x24d8fd8a49b38d1ef74c51e1931648f319df01029L'
p1911
g2
((lp1912
g4
atp1913
Rp1914
sS'0x2b92fdeb4ce4ea660e281d4627a4f45a07f1260041b9bfefL'
p1915
g2
((lp1916
g4
atp1917
Rp1918
sS'0xc4502f4e27093f45837c4efd96823f10175606e99bbd8f31L'
p1919
g2
((lp1920
g4
atp1921
Rp1922
sS'0x82d1decb59209116cc146bd134972aa4fb77cd56e0bd8253e81ee5999acf2L'
p1923
g2
((lp1924
g4
atp1925
Rp1926
sS'0x205e339346a904d3c81a63059277e2fb6ef7691ffb915b05a1f56L'
p1927
g2
((lp1928
g4
atp1929
Rp1930
sS'0x1f76acaf9c48e26ef3a10c28b6d78a0a4f91da464a264a1d8c6fc0a44L'
p1931
g2
((lp1932
g4
atp1933
Rp1934
sS'0x785635b5e506bbf271ac3527b6c48fe2aef6b0849d5f3dbfb80478ffb424L'
p1935
g2
((lp1936
g4
atp1937
Rp1938
sS'0x623ae97f044ad6437d35c2f2658a21d28a0be6857L'
p1939
g2
((lp1940
g4
atp1941
Rp1942
sS'0x527aa99e395dcc350dfe5790863ac35a8aad27db871L'
p1943
g2
((lp1944
g4
atp1945
Rp1946
sS'0x21ebe706bb643c559485c8e0bb707dcf2f0738f41L'
p1947
g2
((lp1948
g4
atp1949
Rp1950
sS'0x55ffb70d0aaff932cd890184c32fc04f992dea0b89a50L'
p1951
g2
((lp1952
g4
atp1953
Rp1954
sS'0x398b065b2848a68ceaf6e0eb8ad1ce45a504b0f9c6103164f422L'
p1955
g2
((lp1956
g4
atp1957
Rp1958
sS'0x18182c730d02354848cb8f6f7995ce928e3fa1f6114821dbL'
p1959
g2
((lp1960
g4
atp1961
Rp1962
sS'0x2b0393b6ea831172b88ad87a25dedcc8e74a763230ca0L'
p1963
g2
((lp1964
g4
atp1965
Rp1966
sS'0x52b5be39f43e1081210659dc5552bfb33d1ce8cb02L'
p1967
g2
((lp1968
g4
atp1969
Rp1970
sS'0x449c9938798a09937c044359964af75974da6cd927e6196ae11db14L'
p1971
g2
((lp1972
g4
atp1973
Rp1974
sS'0x2b9b4a43c860305ceeb1765b53a45e6d0cccec7f8b0bd619736557e851a9aL'
p1975
g2
((lp1976
g4
atp1977
Rp1978
sS'0x130ce721c6b4c021a322c8b5546afe21fa4424c7d69f6d48b8L'
p1979
g2
((lp1980
g4
atp1981
Rp1982
sS'0xccc6caff7e97f03ee066b6b919aea0ee2252f208ebL'
p1983
g2
((lp1984
g4
atp1985
Rp1986
sS'0x3aed7b23acb8bb0582452ebd3860897e258387f2d80fbb49d056e0L'
p1987
g2
((lp1988
g4
atp1989
Rp1990
sS'0x3b2dc693958c118083d957438bafe3b5f9e63b48eL'
p1991
g2
((lp1992
g4
atp1993
Rp1994
sS'0x6e82eebe418a8a11c5699a3c3259075c6af650ae7L'
p1995
g2
((lp1996
g4
atp1997
Rp1998
sS'0x3c54543f397123c69cf15d9b09037f56357a2bf2f81d521c345L'
p1999
g2
((lp2000
g4
atp2001
Rp2002
sS'0x268f8e763763c57e15135de5162312d78f76f25bfL'
p2003
g2
((lp2004
g4
atp2005
Rp2006
sS'0x121947649d8273f85a8c3d4331c3ff26b6018260578a0785L'
p2007
g2
((lp2008
g4
atp2009
Rp2010
sS'0xaef7d79d904728636c8d91757321455adae78b5dcfb4L'
p2011
g2
((lp2012
g4
atp2013
Rp2014
sS'0x6b90b8b3473a08f5bef2e337a460c42be1b50ecd05c66693ccbd569d8c9aL'
p2015
g2
((lp2016
g4
atp2017
Rp2018
sS'0x3af5e1253e2b1c84f5902f96ef135e5f9f37d3f10ccded645a78L'
p2019
g2
((lp2020
g4
atp2021
Rp2022
sS'0x17a026cf996a4233a82d52e35623a083982e2e21cc8eL'
p2023
g2
((lp2024
g4
atp2025
Rp2026
sS'0xb0c8716b062a3157bc7cf4d4aba762959db479368862db79f05e0eL'
p2027
g2
((lp2028
g4
atp2029
Rp2030
sS'0x1898f9ef861f969fcf8a62093c6368f2c89d54ee14f4L'
p2031
g2
((lp2032
g4
atp2033
Rp2034
sS'0x35d46d41034da0f6b73311adc88696fbe095daaee623568L'
p2035
g2
((lp2036
g4
atp2037
Rp2038
sS'0x8b95ec25ce820d879a8467819678657d484d106b551be4c4e4L'
p2039
g2
((lp2040
g4
atp2041
Rp2042
sS'0xc73a32a473c9d1700e0166c5e2e184931c3e2af6be6a008a195ddL'
p2043
g2
((lp2044
g4
atp2045
Rp2046
sS'0x1f5a729e0688cf8f4250756b8ddac673f344b8139ceda78L'
p2047
g2
((lp2048
g4
atp2049
Rp2050
sS'0xa1244e60e265f851a1cadf24521ee0f794f0f012cdd3c3daf15e9L'
p2051
g2
((lp2052
g4
atp2053
Rp2054
sS'0x5483cd411794701acba93440a149a0e0ad07bdbfdeb6f57L'
p2055
g2
((lp2056
g4
atp2057
Rp2058
sS'0xbe1402f6ab77e1e9d097b9fee68d0d38ad22e9e7e5L'
p2059
g2
((lp2060
g4
atp2061
Rp2062
sS'0xadde77d546c7e487a92fc102bb726c1c6628c22f9a726L'
p2063
g2
((lp2064
g4
atp2065
Rp2066
sS'0x56283fd51689fdd0d8b86fbdc3acf677ab423f8a96cL'
p2067
g2
((lp2068
g4
atp2069
Rp2070
sS'0x48939e486f65e91fdac505812c3c657093bad67d08114d845f06f37L'
p2071
g2
((lp2072
g4
atp2073
Rp2074
sS'0x11960b175752740d57b591139fa90aaaab664c823ce6L'
p2075
g2
((lp2076
g4
atp2077
Rp2078
sS'0xd8d9900e147fff36a121790c860375ae8681e3411472bf45L'
p2079
g2
((lp2080
g4
atp2081
Rp2082
sS'0x5a962d69838ef2d5a9d6366e7836f6c352c535d6792L'
p2083
g2
((lp2084
g4
atp2085
Rp2086
sS'0x7aed583bebb434eadd601bca04c016468ca803032091cL'
p2087
g2
((lp2088
g4
atp2089
Rp2090
sS'0x4573d01a800f35640ab345b5881c42a1c16a07907866L'
p2091
g2
((lp2092
g4
atp2093
Rp2094
sS'0x59661663e2b36e7d2e6461f2c7b7261a1b4397288bfc6c9L'
p2095
g2
((lp2096
g4
atp2097
Rp2098
sS'0x12477bbf1462a68035b2a6f34b1dc033e339025e1424d5e8L'
p2099
g2
((lp2100
g4
atp2101
Rp2102
sS'0xaaae324796256529e247c9850fce8d3439ea491f26L'
p2103
g2
((lp2104
g4
atp2105
Rp2106
sS'0x1f4ad591d412057946e69128decb90e682f029471305L'
p2107
g2
((lp2108
g4
atp2109
Rp2110
sS'0x145b2e662ae67d83bcb3e981f4908823b7d7a8b02e1L'
p2111
g2
((lp2112
g4
atp2113
Rp2114
sS'0x45f63ca04a5a709b9ba82c4dc81340b193b33b2baef90c91c6dL'
p2115
g2
((lp2116
g4
atp2117
Rp2118
sS'0x212595441127e9457dab445dee7e958ca0b87d5be90ab7f734a935fL'
p2119
g2
((lp2120
g4
atp2121
Rp2122
sS'0x1e36ceb22a731f3ad0c3f08d168a88338947463d62ce1b0ac33071L'
p2123
g2
((lp2124
g4
atp2125
Rp2126
sS'0x2331c604fb0bc7d823922f2243087eb56d2fb05eaL'
p2127
g2
((lp2128
g4
atp2129
Rp2130
sS'0x443e087e4f5aecf74614aaabb0d5bebc5c7e03f41115685422a7dL'
p2131
g2
((lp2132
g4
atp2133
Rp2134
sS'0x1e64e36b913b9dc490e2fcdda7b6a7166c14900d669acL'
p2135
g2
((lp2136
g4
atp2137
Rp2138
sS'0x643d5374f95ee241ce9c6af9a4519a5ee637543c9dedc6df6ecL'
p2139
g2
((lp2140
g4
atp2141
Rp2142
sS'0x8f0a9b55aab0efa82f99026c0c45520cdff882070620694656L'
p2143
g2
((lp2144
g4
atp2145
Rp2146
sS'0x1fa2a921403fe0ba221764976531797ad1c9c8280f6b3c315570a37cL'
p2147
g2
((lp2148
g4
atp2149
Rp2150
sS'0x20530e76bfdd5b381ce035e4780b48071c069ea0bL'
p2151
g2
((lp2152
g4
atp2153
Rp2154
sS'0x28b9323ae163f072adf3eb1c157ea5654cda411171179L'
p2155
g2
((lp2156
g4
atp2157
Rp2158
sS'0x5360f87e3e0560a46af9eee43259c9899f5b0b3b062141685c2a3L'
p2159
g2
((lp2160
g4
atp2161
Rp2162
sS'0x38b5a1acfb28854089479dc3050424a61320e614dc606L'
p2163
g2
((lp2164
g4
atp2165
Rp2166
sS'0x12cb7fa5eec26a58100f71d76bd3a15f46867be8e3e7dae40bd3L'
p2167
g2
((lp2168
g4
atp2169
Rp2170
sS'0x17c52d5ffaabff330cf4068f4004f95e1c8857b59d87143ae9501ba0c65L'
p2171
g2
((lp2172
g4
atp2173
Rp2174
sS'0x2d2a08c8ef46cf571be50b739b0582e102a12e8dec40b6c669bL'
p2175
g2
((lp2176
g4
atp2177
Rp2178
sS'0x4438218e9a23844b43e221bab529f19ebb6b2ac018a943083d853d716L'
p2179
g2
((lp2180
g4
atp2181
Rp2182
sS'0x77085e752ebdb929680d368761779f1a86e92d7e6d7d80fbecdc8L'
p2183
g2
((lp2184
g4
atp2185
Rp2186
sS'0x6aa5b04c0c3d6258ad94c4bf461042f1f8d05cbb23552fa5eL'
p2187
g2
((lp2188
g4
atp2189
Rp2190
sS'0xaf2e48285abc9d3925014f0a8369d79511ba8c4465dL'
p2191
g2
((lp2192
g4
atp2193
Rp2194
sS'0x2007a0d0aec8dc3d986e621e29d57705ae0e62ca1267L'
p2195
g2
((lp2196
g4
atp2197
Rp2198
sS'0x20293b94730bd46ed45f41422ea62f601b1885e90153L'
p2199
g2
((lp2200
g4
atp2201
Rp2202
sS'0x9869253921795cfe3dd1c15a7110b8d37b02b65623925a96ec8572f9L'
p2203
g2
((lp2204
g4
atp2205
Rp2206
sS'0x7fc4502c343b7e8be6127d2c0b1c5c7b769e3edc7fb14dc0e3de1cL'
p2207
g2
((lp2208
g4
atp2209
Rp2210
sS'0x1794e8868961366e8ef23fffd304653d9fc7187d5609615c2f3a745L'
p2211
g2
((lp2212
g4
atp2213
Rp2214
sS'0x59489070c9accd31de40e846e0cad0a5c4c0c9459e3b98c4bL'
p2215
g2
((lp2216
g4
atp2217
Rp2218
sS'0x7e2506650cfbb0e3c89b95c941f94e650b597ab515a5e36L'
p2219
g2
((lp2220
g4
atp2221
Rp2222
sS'0x929f609044f9860fbabb4f034ee27da80636cfd30fa99L'
p2223
g2
((lp2224
g4
atp2225
Rp2226
sS'0x8025b2acf8e7af717d2e9c0fe45837df22d1e8d3dL'
p2227
g2
((lp2228
g4
atp2229
Rp2230
sS'0x13ff110e4292b81e0928e769a33e39b740051196c03c784888L'
p2231
g2
((lp2232
g4
atp2233
Rp2234
sS'0x19d7487404f6a1667a7bcf6e591c2a2add8288232821369b6ba68b05124fL'
p2235
g2
((lp2236
g4
atp2237
Rp2238
sS'0x30dfc7480a0908e3c2cfcf907dc04e036b9ace3d3aea1L'
p2239
g2
((lp2240
g4
atp2241
Rp2242
sS'0x6c3e95e196d7d787be7abaa9f6731b3331fb7f6818L'
p2243
g2
((lp2244
g4
atp2245
Rp2246
sS'0x57248307ee3cdeb6b2dc4fd05d5682ea9885c54f2019fdeL'
p2247
g2
((lp2248
g4
atp2249
Rp2250
sS'0x13bff4382fea0e4ccb22f2f9371032ffd6f021b008e88e0c94f92L'
p2251
g2
((lp2252
g4
atp2253
Rp2254
sS'0xc81226167c524d73b6db583762c1a9faf423670fL'
p2255
g2
((lp2256
g4
atp2257
Rp2258
sS'0x43270a271d35d40a45ac8e4f4f570be230a67708b1fcfca265201d221L'
p2259
g2
((lp2260
g4
atp2261
Rp2262
sS'0x3505610507c7212dbef6498b109790f3b69a7fd3974L'
p2263
g2
((lp2264
g4
atp2265
Rp2266
sS'0xa0c098525853e4607250a13f161613b406cca0bf7eL'
p2267
g2
((lp2268
g4
atp2269
Rp2270
sS'0x8307d169eacc6843af74cd272b857b4d9f7d7dcfa20868c7L'
p2271
g2
((lp2272
g4
atp2273
Rp2274
sS'0x16bf582a1a739fc851e15c99bea5a82c7d30336fad5f4715574a2L'
p2275
g2
((lp2276
g4
atp2277
Rp2278
sS'0x4bb2268d3502ddfb06a4e5c8e147b1fae11f17530L'
p2279
g2
((lp2280
g4
atp2281
Rp2282
sS'0xff1aec9e4cb395e64ab45db11d679fa85950f29d437e8bL'
p2283
g2
((lp2284
g4
atp2285
Rp2286
sS'0x70594669c8b04044e4100d2a793de771fbf32d795L'
p2287
g2
((lp2288
g4
atp2289
Rp2290
sS'0x44e67152291073989c71099740c0ba2289e160322576ddd2L'
p2291
g2
((lp2292
g4
atp2293
Rp2294
sS'0x9f152d62edcb71d86ff36fc7d8686253529fd712591L'
p2295
g2
((lp2296
g4
atp2297
Rp2298
sS'0x3be88608eede08c5da95135b13391198b4fe181b190a15614ffdL'
p2299
g2
((lp2300
g4
atp2301
Rp2302
sS'0xaf093273da43abf8030fb18e8d9a58966b27f94f789a6970fe85501aa8ab295L'
p2303
g2
((lp2304
g4
atp2305
Rp2306
sS'0x1b35ea8bff86ef51c5b5efa84a16a14ef9a2a611d9fea38L'
p2307
g2
((lp2308
g4
atp2309
Rp2310
sS'0x17ada398f5abf5b811d6d4fccb1119a0fe246dd0407fL'
p2311
g2
((lp2312
g4
atp2313
Rp2314
sS'0x1c93b6fab646c16fb4568deb0490f7b8aee8c1ca26b2feeb2a39ab60fL'
p2315
g2
((lp2316
g4
atp2317
Rp2318
sS'0xc877fa39b1a8645d92a0ebbdbd3618d62b61e101ad47L'
p2319
g2
((lp2320
g4
atp2321
Rp2322
sS'0x2ea75ad0914a461e8e3f60269615d4a0e46c042a5e7L'
p2323
g2
((lp2324
g4
atp2325
Rp2326
sS'0x36d6733d5896c247738b844ccc369eddb1e1a745bdebed3cL'
p2327
g2
((lp2328
g4
atp2329
Rp2330
sS'0x351fd4991771262c720d60b4372a89a477b3eba73eb3b50ea5643332L'
p2331
g2
((lp2332
g4
atp2333
Rp2334
sS'0x2e874eb744d0dd45f0107a85b1ee4bf5bb820819cd1c5104bbL'
p2335
g2
((lp2336
g4
atp2337
Rp2338
sS'0xcf708897fa2952a516aa37227d785e520b96e4b3aaaa67L'
p2339
g2
((lp2340
g4
atp2341
Rp2342
sS'0xfe3fa35134c7241dfbbdd48e9797f3f1b8872af21b401ed58a5L'
p2343
g2
((lp2344
g4
atp2345
Rp2346
sS'0x4f00733ac96756ada083915b6e1a2dfb53154b0c29L'
p2347
g2
((lp2348
g4
atp2349
Rp2350
sS'0x137d52fde2f428e667d8216bb9b899750c60264510d837e0L'
p2351
g2
((lp2352
g4
atp2353
Rp2354
sS'0x629518884a85f420d71b0888e734e0328f7645b0d4L'
p2355
g2
((lp2356
g4
atp2357
Rp2358
sS'0xb4a0439ec2d1cca3ced3435211b8d60834de6bee3e521ef5L'
p2359
g2
((lp2360
g4
atp2361
Rp2362
sS'0x348cd15fbe779fb176d8e2b4a9779e141ea6a6eb22df5329L'
p2363
g2
((lp2364
g4
atp2365
Rp2366
sS'0x35db9c2919f69b2b47572d60ea72240001433201aL'
p2367
g2
((lp2368
g4
atp2369
Rp2370
sS'0x7ec6475538eaa6659a1f08e75010a0000332d0fa05195e6ecb9210f288L'
p2371
g2
((lp2372
g4
atp2373
Rp2374
sS'0x1b4465fb12f46b21bb4bda56007219e097fd288bfebb1L'
p2375
g2
((lp2376
g4
atp2377
Rp2378
sS'0x19d42da93b8952642d83f5eabdd5f4204e4a39f9060da1ebaL'
p2379
g2
((lp2380
g4
atp2381
Rp2382
sS'0x6009ecae30daa5b3da797ccec39b2d6b2bf96e0b5a4L'
p2383
g2
((lp2384
g4
atp2385
Rp2386
sS'0x12eeb0d2cdea0217eca545fdcdd279654a5ccd8f28c01a43df7b1418f86L'
p2387
g2
((lp2388
g4
atp2389
Rp2390
sS'0x281cbc91f7023ea625e3f9fb5873fba00dbadc727bd49fea81739ed57392L'
p2391
g2
((lp2392
g4
atp2393
Rp2394
sS'0x77768449e322288d4d09cc725632c4d480fe2b1f511deL'
p2395
g2
((lp2396
g4
atp2397
Rp2398
sS'0x18eade318104c1bf0da1dd7112d33dd1d3ebbf53ceac71L'
p2399
g2
((lp2400
g4
atp2401
Rp2402
sS'0x1118c16d7927f0a0771a02e074389d54bb23f2e96a781bL'
p2403
g2
((lp2404
g4
atp2405
Rp2406
sS'0x810ac5dce6679fbc9bec69c0473e29f87945c7b1f1496L'
p2407
g2
((lp2408
g4
atp2409
Rp2410
sS'0x40c51ca7c4049f935867eadd933fffa2ac752bb26439L'
p2411
g2
((lp2412
g4
atp2413
Rp2414
sS'0xeb8cfe7fccd8f788dd32ffc2a9ee133083825d6de7ed1d36de3L'
p2415
g2
((lp2416
g4
atp2417
Rp2418
sS'0x144951e9fca11d67a1e0d66b9772f3850c7e2ee4eca2L'
p2419
g2
((lp2420
g4
atp2421
Rp2422
sS'0x2333627ca296e74a3b42555c7ff2a0eb4b53439ce02afacb6L'
p2423
g2
((lp2424
g4
atp2425
Rp2426
sS'0x527bd359f8745e969af51a3a74c184a880774c1d8c745d872c95b4eafL'
p2427
g2
((lp2428
g4
atp2429
Rp2430
sS'0x95707370582eebbbc8a8e025771ea38c2d26f7842541L'
p2431
g2
((lp2432
g4
atp2433
Rp2434
sS'0x21b2cb65065cf1b429c519e90ca606e343d9dc4ba48b74b5c2daeL'
p2435
g2
((lp2436
g4
atp2437
Rp2438
sS'0x55f637422c4fea0878e939c4cb783aa2a86ebff9629L'
p2439
g2
((lp2440
g4
atp2441
Rp2442
sS'0x41520d61a67b622717f749bb434d77a92ecd6411a52d4b3d1ef31e51b6aL'
p2443
g2
((lp2444
g4
atp2445
Rp2446
sS'0xe21933869adb392a155ca20409bab01787097778e2191022fbe271ddL'
p2447
g2
((lp2448
g4
atp2449
Rp2450
sS'0x18acc5532aee6b1a223b1f03061d60d319a777636eaae485eacfdL'
p2451
g2
((lp2452
g4
atp2453
Rp2454
sS'0x283d9c3ba4efa45c936e123e4cb307f282797fc4e5e170d5a282b7710beL'
p2455
g2
((lp2456
g4
atp2457
Rp2458
sS'0xd6abf281930d51d3b3bdc69b69c5631223455b9f07f245L'
p2459
g2
((lp2460
g4
atp2461
Rp2462
sS'0x1370b44b583540b8a5948c2ff3b1fdea47642f46c8bdL'
p2463
g2
((lp2464
g4
atp2465
Rp2466
sS'0x540f4c341e8bab6f8589523b924681d1f7a83a82f5e01L'
p2467
g2
((lp2468
g4
atp2469
Rp2470
sS'0x14b474fd464174da9034522bb723df78f84b0892dcd04139e8L'
p2471
g2
((lp2472
g4
atp2473
Rp2474
sS'0xa48359b86bc6a99650a62932e673b6275a32f973a9d593e0L'
p2475
g2
((lp2476
g4
atp2477
Rp2478
sS'0x504c918812c20d6786145c52484fea31d8e8a875b3L'
p2479
g2
((lp2480
g4
atp2481
Rp2482
sS'0x211fcff7e75cd5ebabcd9aa61748cc120bc1382deL'
p2483
g2
((lp2484
g4
atp2485
Rp2486
sS'0x41700fc49cf4441661cf325e3bbc950dcaf26c00515f2f94L'
p2487
g2
((lp2488
g4
atp2489
Rp2490
sS'0x4e9dc0010fb530bd845cc573db032fe6f77e94aafL'
p2491
g2
((lp2492
g4
atp2493
Rp2494
sS'0x80807a2694bb9e0537b1c667d759269c1a25cf971da2745e42e3L'
p2495
g2
((lp2496
g4
atp2497
Rp2498
sS'0x1a9ad08647ac4c88ac52a81ba6539f77a991852a32L'
p2499
g2
((lp2500
g4
atp2501
Rp2502
sS'0x24b14b6481f9109cf719b03284f273aa4f1ce667ec6c9e8dbL'
p2503
g2
((lp2504
g4
atp2505
Rp2506
sS'0xb2d832d082ab019651f664195cfcb221067f763493ef168a8L'
p2507
g2
((lp2508
g4
atp2509
Rp2510
sS'0x1645ea7d8e1ec335a5dd9e66abd6dc9e85b8226b2f52L'
p2511
g2
((lp2512
g4
atp2513
Rp2514
sS'0x96dc45ce0291d88ecd6be782127b1910422912c08b95ee81L'
p2515
g2
((lp2516
g4
atp2517
Rp2518
sS'0x34e8a171d55310214ede8c7bc7b2a7741371a804f010032bL'
p2519
g2
((lp2520
g4
atp2521
Rp2522
sS'0x46f4d39a6250417ca3c0c57085945e6c42464dc44100e8e2L'
p2523
g2
((lp2524
g4
atp2525
Rp2526
sS'0x73c8aa1a98ed45faa60f0cd59c81e2679402022a8772ad2fccdL'
p2527
g2
((lp2528
g4
atp2529
Rp2530
sS'0x9eee60672ff232def8ec644a8715a08d7109d5b61d74bdL'
p2531
g2
((lp2532
g4
atp2533
Rp2534
sS'0x2662e4c70ca3263d4f914695b6c3985ef99d046e0b02d87965e800L'
p2535
g2
((lp2536
g4
atp2537
Rp2538
sS'0x1bdc8e23ed1ff2d6e1cbb03080cd9fbf2b0584c303c68ce1e7cbf92L'
p2539
g2
((lp2540
g4
atp2541
Rp2542
sS'0x357ccfaa1c9ddb7eacaef768bb63c89fa8ff2c4b80L'
p2543
g2
((lp2544
g4
atp2545
Rp2546
sS'0x4d85d95c0ee3e4336f7424544f5121d6c7f09c66ae8584ba9827651e64d2L'
p2547
g2
((lp2548
g4
atp2549
Rp2550
sS'0x10982b4f7b41c33be63d344f9b145466c311232c65L'
p2551
g2
((lp2552
g4
atp2553
Rp2554
sS'0x207f14de4010d36eaa3ace2f0ad0f8d4bcf083499ca0a67L'
p2555
g2
((lp2556
g4
atp2557
Rp2558
sS'0x1d06076128928dbc1b428bc33d8fb6683e198b009ed003ebd1a211fb04L'
p2559
g2
((lp2560
g4
atp2561
Rp2562
sS'0x19c07c6edd0734c66af02d9cd5d587f204895f01eL'
p2563
g2
((lp2564
g4
atp2565
Rp2566
sS'0x69e0d18d48c3588c2e317782437ea0d1c8afd0a67eL'
p2567
g2
((lp2568
g4
atp2569
Rp2570
sS'0xd460894ac370b90bab1ba1c2013542cc38cec212b7ecL'
p2571
g2
((lp2572
g4
atp2573
Rp2574
sS'0x29ccce981b4a97fcb4cc1311e4de8a1b2a5361241b01L'
p2575
g2
((lp2576
g4
atp2577
Rp2578
sS'0xd7adee98aeeeb57710b7d6e69a1577fa488fe2669a68a729c4dL'
p2579
g2
((lp2580
g4
atp2581
Rp2582
sS'0x143508e778e78feb0beb0f329274a8b0531fd39fa819f61f83L'
p2583
g2
((lp2584
g4
atp2585
Rp2586
sS'0x2208ca70b9895cd5c16af3ffc41a2764a20b79712d2d1c52d53a24c4d85eadL'
p2587
g2
((lp2588
g4
atp2589
Rp2590
sS'0x7b287896f6d3f0e9a946fe4feeb92c6499cf498a88e753L'
p2591
g2
((lp2592
g4
atp2593
Rp2594
sS'0xaad01365d7b7f7f0f4d549302d0ac010ac3c244aad3L'
p2595
g2
((lp2596
g4
atp2597
Rp2598
sS'0x8bfb1ac58a54e0aaddceb39a68e32d5adc146416aeaL'
p2599
g2
((lp2600
g4
atp2601
Rp2602
sS'0x7f2e2cfbb71b5027b9d4ef2bb4844bc22aa24e9bdbb2c32454814725bL'
p2603
g2
((lp2604
g4
atp2605
Rp2606
sS'0xa9277cd564d7481b3e87837c0b9ffcd19d0dc713fbe516d80367L'
p2607
g2
((lp2608
g4
atp2609
Rp2610
sS'0x27deca3323d7954c32686083a7f630d15793cb029c8c9L'
p2611
g2
((lp2612
g4
atp2613
Rp2614
sS'0x2025c608ffd33beba700160f6df8cf067ab04d6ebdc33c9cb25L'
p2615
g2
((lp2616
g4
atp2617
Rp2618
sS'0x899f48705f07233349292c5be3669e28e52f6f74L'
p2619
g2
((lp2620
g4
atp2621
Rp2622
sS'0x2adee656bb238314d70e2ff1b55c12d3a57da93268c000c3fbe77L'
p2623
g2
((lp2624
g4
atp2625
Rp2626
sS'0x22c61e558ff4c46b5e11a60def3e65e8637e89453af65c6dd1418af15f81L'
p2627
g2
((lp2628
g4
atp2629
Rp2630
sS'0xc2500c00900a821038a0c495efe1dfd05a9347265a90L'
p2631
g2
((lp2632
g4
atp2633
Rp2634
sS'0x54f1bf95f004f36183ca72c1c3931419aef2022dce7340L'
p2635
g2
((lp2636
g4
atp2637
Rp2638
sS'0xf678766d6afc264feebbb44c520d6e4417c03bf809154f5a4L'
p2639
g2
((lp2640
g4
atp2641
Rp2642
sS'0xf161e6209061d49cb20b263e783b11d646369ddc1518a766260L'
p2643
g2
((lp2644
g4
atp2645
Rp2646
sS'0x2427c9045ccf548d06dc9d679c85540961c75c0c69cb9L'
p2647
g2
((lp2648
g4
atp2649
Rp2650
sS'0xdfd494a2fc1bed40507a6455188072176d0a8687fbL'
p2651
g2
((lp2652
g4
atp2653
Rp2654
sS'0x96aa73be580da2c27352500aeb819af9c8023c32e231f7b5d4L'
p2655
g2
((lp2656
g4
atp2657
Rp2658
sS'0xdb46359898a24a98f225716b1646420901fb0668e0L'
p2659
g2
((lp2660
g4
atp2661
Rp2662
sS'0x1510ed185f97f812c4494a0ad2c1e6ba33e8d26e7e4f4d0bL'
p2663
g2
((lp2664
g4
atp2665
Rp2666
sS'0x1726958c436c4b795e10dd66a40229388bd4158a4091L'
p2667
g2
((lp2668
g4
atp2669
Rp2670
sS'0x261346fe8d772177b5f7861f0c9a50b04329bc70d73f548aaab89e1bcedaadL'
p2671
g2
((lp2672
g4
atp2673
Rp2674
sS'0xd7b51659e9c11f043ee8934ebf3a9a53a23d5540acafb6c83bL'
p2675
g2
((lp2676
g4
atp2677
Rp2678
sS'0x10283d7ec1681128009d1e730edbfa69fa76aaa7723bL'
p2679
g2
((lp2680
g4
atp2681
Rp2682
sS'0x21be5511eedb58c4a161aa762cc37eea083ddbb60L'
p2683
g2
((lp2684
g4
atp2685
Rp2686
sS'0x54dbe743fa2234b01bbb464c1f6cc03e5bf55a1834d18fb85L'
p2687
g2
((lp2688
g4
atp2689
Rp2690
sS'0x847f4f27e33aefa761c84c1b8080f74d545c8a5e817279532ef9L'
p2691
g2
((lp2692
g4
atp2693
Rp2694
sS'0x23b1c292ff14ea8223d96ef6e2b16d69c9bcbfd94faL'
p2695
g2
((lp2696
g4
atp2697
Rp2698
sS'0x29f17a228540fb3cfd8f858c8fbd3b47d44fda9666dL'
p2699
g2
((lp2700
g4
atp2701
Rp2702
sS'0x15c60475e22920b7b2a3a7f343c164764beff3262f5d14f15bff1870460L'
p2703
g2
((lp2704
g4
atp2705
Rp2706
sS'0x5a16339faff5e6f26b20f7fa6aa5c2a3e775a21136260ccf0531625e85L'
p2707
g2
((lp2708
g4
atp2709
Rp2710
sS'0x79fa6107ff1a55e8a69dea0c9ece38c426977b9ba64f47e7aL'
p2711
g2
((lp2712
g4
atp2713
Rp2714
sS'0x1e2e44471696e9d0e66ca789075da2bf552da6f688fL'
p2715
g2
((lp2716
g4
atp2717
Rp2718
sS'0x3f096a0608a2dd38506e3dd79a729645ece175f96199f713afef521L'
p2719
g2
((lp2720
g4
atp2721
Rp2722
sS'0x103a7fe51b1abbd34115ecdb8ea42daaab7a7bb7aa00b32aL'
p2723
g2
((lp2724
g4
atp2725
Rp2726
sS'0x1ad1fd2010062fb6b912915fc07b342a686a004d7fb08dbd377L'
p2727
g2
((lp2728
g4
atp2729
Rp2730
sS'0x6370bfcc3377bbd4ec5ca3a39ba41d0794fc16299b23627f65f138bL'
p2731
g2
((lp2732
g4
atp2733
Rp2734
sS'0x9c28ae2a5bf381850e2db0e893cf53ea5f5a2289d3bf1fac29L'
p2735
g2
((lp2736
g4
atp2737
Rp2738
sS'0xfaefe8ca7df90ffb8dad8b5d05680d86169c4ea463822fcbf13aL'
p2739
g2
((lp2740
g4
atp2741
Rp2742
sS'0x38627ef1cc477b2a5556e9e1f8b7fcf008e1eb9a077643bb69a3L'
p2743
g2
((lp2744
g4
atp2745
Rp2746
sS'0xd1e2b5e0df19798a78ffb3e829374b61ee533090a0d26e87f5cL'
p2747
g2
((lp2748
g4
atp2749
Rp2750
sS'0xa50a2d039bc4002b7f3301700dbca8ee676a93560793d2fL'
p2751
g2
((lp2752
g4
atp2753
Rp2754
sS'0x323b357e52652dbc110d0d92ecf8831f5b152157225f2bf1L'
p2755
g2
((lp2756
g4
atp2757
Rp2758
sS'0x486582bdb640479583570acf3ed7e128fb35f6b229d5L'
p2759
g2
((lp2760
g4
atp2761
Rp2762
sS'0x54c01902bf3da80b4dddc6c8bc3c86a9b65402e1fe1f9L'
p2763
g2
((lp2764
g4
atp2765
Rp2766
sS'0x530c9b7ea0d9e639b163f158b94ff3ef01982e2f9616ffeb37274ad01fcL'
p2767
g2
((lp2768
g4
atp2769
Rp2770
sS'0x1622e92eb7882ff74d6ff0e12bca5221f032aa7778d5547a3fbd6L'
p2771
g2
((lp2772
g4
atp2773
Rp2774
sS'0x4b202a45770fcae6dcd30703be5b408d21b2f31eef8b7c6b501dd32c7L'
p2775
g2
((lp2776
g4
atp2777
Rp2778
sS'0x920e7f1151aa5cfee92f066c7938710eae7099750e396c8bL'
p2779
g2
((lp2780
g4
atp2781
Rp2782
sS'0x12a523f649a67337f3bd970bc6dbbf6e05377d017b60a8857abd9fedL'
p2783
g2
((lp2784
g4
atp2785
Rp2786
sS'0xb3f79980599171f5b5e65f0e9e813d4f918fcf7a3b17a9b27eL'
p2787
g2
((lp2788
g4
atp2789
Rp2790
sS'0xa373a175953471fe4ae140b9fcc8c589d06fb6d752eL'
p2791
g2
((lp2792
g4
atp2793
Rp2794
sS'0x1c5852f1ba793d938efe1cef31df4953b3b78e2fa5537bL'
p2795
g2
((lp2796
g4
atp2797
Rp2798
sS'0xa312c615421343ad37ad221ccf07544160e66d7933fa5ef0460e360L'
p2799
g2
((lp2800
g4
atp2801
Rp2802
sS'0x135197f04ff25470c265da2ff69e40eb6d25728d5d25fL'
p2803
g2
((lp2804
g4
atp2805
Rp2806
sS'0x94984b6a45ffb9bb538748d13b0c3f9df4b65492c9af0523cf2878L'
p2807
g2
((lp2808
g4
atp2809
Rp2810
sS'0x1bf8873c66f56a8c28c603bd28db7832aa43bcf119L'
p2811
g2
((lp2812
g4
atp2813
Rp2814
sS'0x591cd374e935b4da824f6a573f6b63573ebcbd769b42daL'
p2815
g2
((lp2816
g4
atp2817
Rp2818
sS'0x4c100ef2452723844f544191a9ffdcbce4ada0200dL'
p2819
g2
((lp2820
g4
atp2821
Rp2822
sS'0x32fc7ccca7a24525e50dc3e705762b3b7cbfcf8e2596e3df9d5146eL'
p2823
g2
((lp2824
g4
atp2825
Rp2826
sS'0x3f32c74965fd95a0e9de63e69372de0ff9baaaf5176d408fL'
p2827
g2
((lp2828
g4
atp2829
Rp2830
sS'0x2480684608b76b4e94f2f93ec046ebfbbb22aef2b08abL'
p2831
g2
((lp2832
g4
atp2833
Rp2834
sS'0x392b707d5ff19574d38f0287a70ce9f4cdbff70f5baL'
p2835
g2
((lp2836
g4
atp2837
Rp2838
sS'0x858e8409b73885288a1b96825e48f89b3992d86c15c60aa7e9c132ccL'
p2839
g2
((lp2840
g4
atp2841
Rp2842
sS'0x57aed10fed6a311da54d6b5d0ddfc79b45fbc97a6L'
p2843
g2
((lp2844
g4
atp2845
Rp2846
sS'0x12f9419d399ba91fe6fd5dc203ca394bcd2945eb33aL'
p2847
g2
((lp2848
g4
atp2849
Rp2850
sS'0x4689b33bf5c59478af6f7f4d265b52378f161dea3775a6cf04dcL'
p2851
g2
((lp2852
g4
atp2853
Rp2854
sS'0x5cd5b953af973c4b3d91b9cb274e94664bfad0db38bec02bL'
p2855
g2
((lp2856
g4
atp2857
Rp2858
sS'0x89d1826ac5235ccd37e9800b595057f4bd74f9e4fc282c5cc8851218f01L'
p2859
g2
((lp2860
g4
atp2861
Rp2862
sS'0x2f4a2bd680d562823ece20d3437b8d72ff86c69e7acb7L'
p2863
g2
((lp2864
g4
atp2865
Rp2866
sS'0x1096d72ddb9b08d1d21f8386fb8a5ccea83a08cc65cL'
p2867
g2
((lp2868
g4
atp2869
Rp2870
sS'0xa5cb49dbd0ccb3e9b4a87389251d847dcfcbeadfebdc3dac374e8L'
p2871
g2
((lp2872
g4
atp2873
Rp2874
sS'0x18320528e0e93846552cd4818ef7bda58edb03384ef475L'
p2875
g2
((lp2876
g4
atp2877
Rp2878
sS'0xfc2df29e6061f0beb6e8b3aecdeafc70d621f5bcdf74eL'
p2879
g2
((lp2880
g4
atp2881
Rp2882
sS'0x39e9fd580296e373ca2faac5bd29ba4da479742862792d9fL'
p2883
g2
((lp2884
g4
atp2885
Rp2886
sS'0x21bd84b765702b3b089efe2216b26f10928c85265dL'
p2887
g2
((lp2888
g4
atp2889
Rp2890
sS'0x196211cebb629b47c8116f4450c3b6704d9854e742edb391f8aL'
p2891
g2
((lp2892
g4
atp2893
Rp2894
sS'0x24009dd283d9f0ee40baa02b40245ff2a3bdf9dfee5e4L'
p2895
g2
((lp2896
g4
atp2897
Rp2898
sS'0x377fe1561d8fd121c9282c2988d46b16c2676ca7150813f950L'
p2899
g2
((lp2900
g4
atp2901
Rp2902
sS'0x133eef0cad55ee961921a60a3f104dcdfe3df23651L'
p2903
g2
((lp2904
g4
atp2905
Rp2906
sS'0x2bcef967ce78d6f9fbe70c8a7cbdf0295a786ec8daL'
p2907
g2
((lp2908
g4
atp2909
Rp2910
sS'0x3feecdbcb0a188d365a4c21c118b9cfbb4a430741135ee5adfc5L'
p2911
g2
((lp2912
g4
atp2913
Rp2914
sS'0x7323ff4b945136e16c9e38fc33206263a284e10704bL'
p2915
g2
((lp2916
g4
atp2917
Rp2918
sS'0x166d5523a027ef99160a8bc2271619acd3a5aeb2bd9f8aL'
p2919
g2
((lp2920
g4
atp2921
Rp2922
sS'0x28a8cb02a8e253b0b44495e569b3ccb75ae7d2cb042d1b704L'
p2923
g2
((lp2924
g4
atp2925
Rp2926
sS'0xc67dedfbea685d8f50111567a6fb81e16f2ed613d7eacL'
p2927
g2
((lp2928
g4
atp2929
Rp2930
sS'0x28b194a453a2b79231c853a8258318e446937947d8a4408c4076201L'
p2931
g2
((lp2932
g4
atp2933
Rp2934
sS'0xb60f07de52fc5eae56f9783dcdabba16cc7eb03833691ca4680a66L'
p2935
g2
((lp2936
g4
atp2937
Rp2938
sS'0x4627f058ba2e6c8ed215b66198f1c3b7c3ab149439L'
p2939
g2
((lp2940
g4
atp2941
Rp2942
sS'0x8237b2e3b5635d6f84422d245d4f5d83963431fd8L'
p2943
g2
((lp2944
g4
atp2945
Rp2946
sS'0x781d378e4aaadfefbe824f8fcbd357ed70878d7deL'
p2947
g2
((lp2948
g4
atp2949
Rp2950
sS'0x98b73f8de6ef46cdcc9c49a2825e19dcdbae6faf9eL'
p2951
g2
((lp2952
g4
atp2953
Rp2954
sS'0xbd9855dc3964f93fd74825b053a0d3099b7a06ecdde826f9L'
p2955
g2
((lp2956
g4
atp2957
Rp2958
sS'0x7ac9533167c4eb93292739e027819fe857909a9af3333fcL'
p2959
g2
((lp2960
g4
atp2961
Rp2962
sS'0x16def2317fdc5c53fc5748dc5a5ff2dda0eab1333cc67de0baL'
p2963
g2
((lp2964
g4
atp2965
Rp2966
sS'0x48c32769426641ef0f635306b501a188b3546cb59864b4L'
p2967
g2
((lp2968
g4
atp2969
Rp2970
sS'0x869a2400370682bc8c230d623220f40fb5b2241f470cb7eee90cL'
p2971
g2
((lp2972
g4
atp2973
Rp2974
sS'0x149b5458a128c03fa008ad03e48bfab4853fd3c633ddb7c266c2d8f9028L'
p2975
g2
((lp2976
g4
atp2977
Rp2978
sS'0xfa22e97aba102c14f893d3db95de5a262b445b301ff7ab81e71feL'
p2979
g2
((lp2980
g4
atp2981
Rp2982
sS'0x238c9019562382fbc292ea079fedfaf3eb35669fa5dc7a2d0L'
p2983
g2
((lp2984
g4
atp2985
Rp2986
sS'0x1d5f9fa39529aa9a16276851f3c28510045dfb8d0685dff77cL'
p2987
g2
((lp2988
g4
atp2989
Rp2990
sS'0x1f161dd937266295b6e69ef79e43d53b054512a44cc8c4c18c2b4fL'
p2991
g2
((lp2992
g4
atp2993
Rp2994
sS'0x1821a0f0a9a4b899a21b9220967e9703d1a3905d5642L'
p2995
g2
((lp2996
g4
atp2997
Rp2998
sS'0x79053e0d435500a6b66390eb6ee25d9a9702331cf792L'
p2999
g2
((lp3000
g4
atp3001
Rp3002
sS'0x29d0049c8eafde380f462b53239579d54c7eac3d6b2bca22L'
p3003
g2
((lp3004
g4
atp3005
Rp3006
sS'0x18c53ffe94ac0ddd95e285eb67afe806a7fdf958aec94329daL'
p3007
g2
((lp3008
g4
atp3009
Rp3010
sS'0x1392909f1ec1d01553b221fb1f0488a1d7f9951e5e8eL'
p3011
g2
((lp3012
g4
atp3013
Rp3014
sS'0x1a0df254178b2ad962d48548575ca2b1f043371739L'
p3015
g2
((lp3016
g4
atp3017
Rp3018
sS'0x1217536f67bd62e293cb293b031e36168d0cfa5a49b23L'
p3019
g2
((lp3020
g4
atp3021
Rp3022
sS'0x50391bd60d8b7aabae0b3746938eb2c193b0cb00233fa43b2L'
p3023
g2
((lp3024
g4
atp3025
Rp3026
sS'0x13f82cada4f495dab9b97cc82f265223d909935e4c757da0a785L'
p3027
g2
((lp3028
g4
atp3029
Rp3030
sS'0x25967fe22cac38010a86370bad3b8117aa01369f6be88L'
p3031
g2
((lp3032
g4
atp3033
Rp3034
sS'0x16194a2dacce4e262cf0b77441a7979eab3886977L'
p3035
g2
((lp3036
g4
atp3037
Rp3038
sS'0x64999c9549ff374354746512f75fdb713f17925a4990cb4b36L'
p3039
g2
((lp3040
g4
atp3041
Rp3042
sS'0x180f77667e1e59a54a3c5e1df581e5861e1e0c118L'
p3043
g2
((lp3044
g4
atp3045
Rp3046
sS'0x54c3ea45b7638e39787b3fa945884dbe4be31ba65362cbc0cL'
p3047
g2
((lp3048
g4
atp3049
Rp3050
sS'0x1e2a043e151f8db0e02926612740115bf5b17058eeL'
p3051
g2
((lp3052
g4
atp3053
Rp3054
sS'0x5dc807d5a4b5c5766d617f8d119b7c159bf2270ef27L'
p3055
g2
((lp3056
g4
atp3057
Rp3058
sS'0x8c254665af6fb4815b612c578d045feec2bb3a33c2836f0fc8d7233b61d9L'
p3059
g2
((lp3060
g4
atp3061
Rp3062
sS'0x10c324330aae17b9d6c18a4068bed70b9b9b6f4041df54d0L'
p3063
g2
((lp3064
g4
atp3065
Rp3066
sS'0x3398f0acb9e8186ad76127e752e71df8ce3f009ea394f8de9035b2385L'
p3067
g2
((lp3068
g4
atp3069
Rp3070
sS'0x112a2b2cee1b6a0c8f74a6aa0dadc012345d576bf603aa491fa01eL'
p3071
g2
((lp3072
g4
atp3073
Rp3074
sS'0x2e0372642a59f17d34585ddb16bb825e0c44edf1dab00aL'
p3075
g2
((lp3076
g4
atp3077
Rp3078
sS'0x18c71f2b2cef15ec463be581b7b4294056392670795a1fdL'
p3079
g2
((lp3080
g4
atp3081
Rp3082
sS'0x104ea8d4c6effd482568c5471a767910c0efc873f6b942c57b66L'
p3083
g2
((lp3084
g4
atp3085
Rp3086
sS'0x4a4fbffbbe4b5f462a449447fd2ae53dd957ec3db5f848d6fcL'
p3087
g2
((lp3088
g4
atp3089
Rp3090
sS'0x94d7bc61f2989cdae96e1743201017f33d2e6db9aL'
p3091
g2
((lp3092
g4
atp3093
Rp3094
sS'0x29d7bb31dfc25f6988dbbafbca8bae0ef21b6ac2dL'
p3095
g2
((lp3096
g4
atp3097
Rp3098
sS'0x30af7fb027ec71fc8917e80ab1ee0b6806b558a949a7dffcL'
p3099
g2
((lp3100
g4
atp3101
Rp3102
sS'0x4bb6b4401ef3d487786d28072e20cb15353bf5b1e751d68178000L'
p3103
g2
((lp3104
g4
atp3105
Rp3106
sS'0x1ddc618f6868cda9c85fc9d9319085486dec9497d595L'
p3107
g2
((lp3108
g4
atp3109
Rp3110
sS'0x16bd6084de0bd6c3bcc145c36019299351bc17463a56be058e25b58d5L'
p3111
g2
((lp3112
g4
atp3113
Rp3114
sS'0x9e942d191dc0913fde87b029a13e517b65398e6849L'
p3115
g2
((lp3116
g4
atp3117
Rp3118
sS'0x811ad6c552e0f099c88502c77c8e0ce6651bfed564aL'
p3119
g2
((lp3120
g4
atp3121
Rp3122
sS'0x988b506a06013a29814583f5c3c747f47c1e7a34eL'
p3123
g2
((lp3124
g4
atp3125
Rp3126
sS'0xfc182485d723063484d5f833cb78954b91c5b87b53ee47ce9L'
p3127
g2
((lp3128
g4
atp3129
Rp3130
sS'0x4b4fa4ea5646badf337b9eb0689c32606cb84ec6ac9bb87ef324308d14eL'
p3131
g2
((lp3132
g4
atp3133
Rp3134
sS'0x705a45d5a50e8e3cbcc1cf3432fd41ab2fb1a807d9c9bf2L'
p3135
g2
((lp3136
g4
atp3137
Rp3138
sS'0x3a77f8fa8c2ab8c3553e46021a3238284a48d5017e0fdc6dL'
p3139
g2
((lp3140
g4
atp3141
Rp3142
sS'0x53a54d98d4a8131fc50e41d7a150028186bc18ca29fff6b76394L'
p3143
g2
((lp3144
g4
atp3145
Rp3146
sS'0x4b9195f890f7d892ca0ae8bd743fd8311fd26969fL'
p3147
g2
((lp3148
g4
atp3149
Rp3150
sS'0x27d2275c5515b790a4f9f48b4527662b539e57779f45bL'
p3151
g2
((lp3152
g4
atp3153
Rp3154
sS'0x6ea1efaabf736b354366c5ae3bbe0442795893f5f895041a27aL'
p3155
g2
((lp3156
g4
atp3157
Rp3158
sS'0x1dd43fb839fec25b1ac3c022a274f06fd32794d2ca21L'
p3159
g2
((lp3160
g4
atp3161
Rp3162
sS'0x96aaafd7ec8e306c714666d55dd5d003c4d09bd7f0f3L'
p3163
g2
((lp3164
g4
atp3165
Rp3166
sS'0x23c031ec9372ee1a08af716fa7866b365c90a1a043e9538937L'
p3167
g2
((lp3168
g4
atp3169
Rp3170
sS'0x360d2dfde6f4035d21f7c9efac0c13dcc59f3e3393b71L'
p3171
g2
((lp3172
g4
atp3173
Rp3174
sS'0x26f7ce2f3d8e7c17e7c753c9c5b2deefd5f14addb1821ffbL'
p3175
g2
((lp3176
g4
atp3177
Rp3178
sS'0x17382d4f3634289d48b5fed3cdcb35c6fa5b87b6337L'
p3179
g2
((lp3180
g4
atp3181
Rp3182
sS'0x1b7de2baf8a81b40bba023250c45d3ab9eb0923d2d16daL'
p3183
g2
((lp3184
g4
atp3185
Rp3186
sS'0x3023c17e4d104f306dbb913dd1267f22faf6d6703L'
p3187
g2
((lp3188
g4
atp3189
Rp3190
sS'0x14ce6fe6e9c4db0fdf2c465e9dde74efaa15a277e6f1333f31aL'
p3191
g2
((lp3192
g4
atp3193
Rp3194
sS'0x1ef1e870fdd9fd6f88be83760bc5ca16ce5b7e8d26e530c2L'
p3195
g2
((lp3196
g4
atp3197
Rp3198
sS'0xe46c4efbf809c6422b1596ea4c7775926cbbefa651L'
p3199
g2
((lp3200
g4
atp3201
Rp3202
sS'0x297579428ac4226a487d2cc6b740664b7377fb834b20da15afL'
p3203
g2
((lp3204
g4
atp3205
Rp3206
sS'0x73c8428f4d18f0300b936386bc9547bd3d82103edc41fc483321139fL'
p3207
g2
((lp3208
g4
atp3209
Rp3210
sS'0x2fae33c738a8f776bba739698bc0719cea07dde5f0c9735d7bL'
p3211
g2
((lp3212
g4
atp3213
Rp3214
sS'0x2f4486d91871fff89fba92192911795c6d5d49374b3e2ae23fL'
p3215
g2
((lp3216
g4
atp3217
Rp3218
sS'0x5b2eaee548f300f2d0efbad4a77233eee18e6d19f1a02L'
p3219
g2
((lp3220
g4
atp3221
Rp3222
sS'0x44f0430f10a443a82849db500b495a6ed584511341f268L'
p3223
g2
((lp3224
g4
atp3225
Rp3226
sS'0x1442994423eb99aad3a75cf0c4f7271e302d7f9510L'
p3227
g2
((lp3228
g4
atp3229
Rp3230
sS'0x18b02adfc82e9412f507822536be3f8be64d39905L'
p3231
g2
((lp3232
g4
atp3233
Rp3234
sS'0xdeef3ff33b32c30fe62ea1cb2889e223f622bc3c0eee53fe29L'
p3235
g2
((lp3236
g4
atp3237
Rp3238
sS'0x4f65e8a811dbe81c8a2800a3998f4f1bf26fcc3ea62e2162be6a42L'
p3239
g2
((lp3240
g4
atp3241
Rp3242
sS'0xd4a4088651ada73eabc63fb07102633a490698fe1dc8L'
p3243
g2
((lp3244
g4
atp3245
Rp3246
sS'0x1c321f0069b3d112a6591f1ff6148bc13c9e12c19e6b6f33L'
p3247
g2
((lp3248
g4
atp3249
Rp3250
sS'0xe1eeeebf02d4309d9a7b9b4ae3e3f4f65730c4939fd3310ac84a724d10eL'
p3251
g2
((lp3252
g4
atp3253
Rp3254
sS'0xde12efec8261efdfca38db9766947e71b31fc3da9cd7ef37db082L'
p3255
g2
((lp3256
g4
atp3257
Rp3258
sS'0xeaee2ab77cd272c1ca4c263cb44f64da7cfe3d9252802L'
p3259
g2
((lp3260
g4
atp3261
Rp3262
sS'0x2346b1d808e1693776f7da87be9c9f062e4c7bea2L'
p3263
g2
((lp3264
g4
atp3265
Rp3266
sS'0x1d824c988025d157a3b5e2ba5a9a9f5cd5f7f31657799d6L'
p3267
g2
((lp3268
g4
atp3269
Rp3270
sS'0xeb5b307d765314cb226e6cadedd6f34a0082a7f27764dbc0d07e5e1f76cd60L'
p3271
g2
((lp3272
g4
atp3273
Rp3274
sS'0xe1607ed0652f60b49a3b375dc4577cfb36a5fcb1b6206afddb8a6de7fL'
p3275
g2
((lp3276
g4
atp3277
Rp3278
sS'0x68d19042359f3b92465bdda68a78fc46335d2ac1eac6481dc9cL'
p3279
g2
((lp3280
g4
atp3281
Rp3282
sS'0x40e40b9bea09c0ccdcc42a6c988f8cd5c064b696cfb4L'
p3283
g2
((lp3284
g4
atp3285
Rp3286
sS'0x611a9ab9d3fb19337f2d947529b389442287cefdb61a762c44cb8L'
p3287
g2
((lp3288
g4
atp3289
Rp3290
sS'0xf589f736652e45e487c43282d7e8051eb2f86dba37dde5580a69L'
p3291
g2
((lp3292
g4
atp3293
Rp3294
sS'0x27ad74d1ba3f399d2cdc6469b3b98b2ff7f0b27b56d0d90cf952aL'
p3295
g2
((lp3296
g4
atp3297
Rp3298
sS'0x1595c29e1ec53cdbd11b7c6c20ce57e1b09dc32d6041f93efb1f2005d65L'
p3299
g2
((lp3300
g4
atp3301
Rp3302
sS'0x6e5d5fe52b99b23388b6468d3aac32381ee9366cb04db0ae25bL'
p3303
g2
((lp3304
g4
atp3305
Rp3306
sS'0x2fbbb2163f5c5b86f255810529c2546dd9912afc34cb23a8f6L'
p3307
g2
((lp3308
g4
atp3309
Rp3310
sS'0xafc7b85c4fbf2f9dc4d60edf51a8f22328820951bL'
p3311
g2
((lp3312
g4
atp3313
Rp3314
sS'0x631862d70044da7e98b9538967a26e9da44c0b58026L'
p3315
g2
((lp3316
g4
atp3317
Rp3318
sS'0x4611f303778b6bff6594fbe3b614fea5ec3da1d1cL'
p3319
g2
((lp3320
g4
atp3321
Rp3322
sS'0x1fb7676802e86b236c29fd85b712c59e325ffef8c832875c9d6ccL'
p3323
g2
((lp3324
g4
atp3325
Rp3326
sS'0x129a76a67fb3873b3be505412d93ab1ea58765e22bb7L'
p3327
g2
((lp3328
g4
atp3329
Rp3330
sS'0x32f6159320ee390b7bef2da0fd6c48265daf36de9437L'
p3331
g2
((lp3332
g4
atp3333
Rp3334
sS'0x6685c8329e8674b380e300a9da1308bf7479ea3745cdaaaL'
p3335
g2
((lp3336
g4
atp3337
Rp3338
sS'0x1a61ae9ff19fb5265bea4451107de4ff352c45826b96fe3985492ecL'
p3339
g2
((lp3340
g4
atp3341
Rp3342
sS'0x3b3fdca88fbe34e51cfdfac82f00de465c8626d1f31e5e7f615c5L'
p3343
g2
((lp3344
g4
atp3345
Rp3346
sS'0xf0e02eda51445892cebba4dee401403199fcee72d2ec9b6a84L'
p3347
g2
((lp3348
g4
atp3349
Rp3350
sS'0x4e8454d54443a72c0a16da897465b25dceae762a3f8cf868588L'
p3351
g2
((lp3352
g4
atp3353
Rp3354
sS'0x5867ebd3bfc373e527a6e2afb0c20106d4e8cdf5cL'
p3355
g2
((lp3356
g4
atp3357
Rp3358
sS'0x20939e819bf46fb44e1b209efc60c021afa13f3664abe341bL'
p3359
g2
((lp3360
g4
atp3361
Rp3362
sS'0x2a9bde7d3368fa803621926024d03992bf1877911e465d27dL'
p3363
g2
((lp3364
g4
atp3365
Rp3366
sS'0xd43c2cbad46ae9fbb6af1fc699bba21fa582019ec493f823f647a69L'
p3367
g2
((lp3368
g4
atp3369
Rp3370
sS'0x10c7709c7f708c5910e40910d96cb5fb4d3c0c65978f2L'
p3371
g2
((lp3372
g4
atp3373
Rp3374
sS'0x1a99ba33ab2603ec2c9521c74e17d2fc93b48e1df8ab6bL'
p3375
g2
((lp3376
g4
atp3377
Rp3378
sS'0x7d700dd66218dea4d128b1626ebda3a1c66459ec05928c4bL'
p3379
g2
((lp3380
g4
atp3381
Rp3382
sS'0x228060f1c54c03ab2cc330ad75910edcb712285cf50a4e0601L'
p3383
g2
((lp3384
g4
atp3385
Rp3386
sS'0xaf67eaf06c9250607c0d1f7a057200b0419c28ff6e52fc53L'
p3387
g2
((lp3388
g4
atp3389
Rp3390
sS'0x1164d1b1d6cb90024b5f9a8de93a2cd0761deaf15f78ecb69245L'
p3391
g2
((lp3392
g4
atp3393
Rp3394
sS'0x6bbb684c88835e8c653491c3a65650016222f4a1fL'
p3395
g2
((lp3396
g4
atp3397
Rp3398
sS'0x2ca0f96e6c03fcf60b3ad8a30bb71193ce4348a0cc5661f73cf11ce9abL'
p3399
g2
((lp3400
g4
atp3401
Rp3402
sS'0x9d5ff71ba7325518709206b1213832f74fe3b1d9554f94ba4d26a89L'
p3403
g2
((lp3404
g4
atp3405
Rp3406
sS'0x98f57665f6e6cf7f4d79bc49eed76678ad245c1415cda331ec109e1L'
p3407
g2
((lp3408
g4
atp3409
Rp3410
sS'0x20282a281eb9000cb7c85360379909730a6778b6dbL'
p3411
g2
((lp3412
g4
atp3413
Rp3414
sS'0x637eebeed8e971d1005cf9780ea6af0eb2c01997c358c9b9ec16aL'
p3415
g2
((lp3416
g4
atp3417
Rp3418
sS'0xc7781611c873699f7c72248664c3315c95a8418dc40930fbL'
p3419
g2
((lp3420
g4
atp3421
Rp3422
sS'0x1347717b3612dc7564bfb1ca725db160cf00e8499aL'
p3423
g2
((lp3424
g4
atp3425
Rp3426
sS'0x15be659093f1bf9c84a421e4a996a87f1f81052354cebb22L'
p3427
g2
((lp3428
g4
atp3429
Rp3430
sS'0x83d758a9ef579eca30a8b2ad935adf1fc8ff07b8dL'
p3431
g2
((lp3432
g4
atp3433
Rp3434
sS'0xb4fcfcbdac5875a7ad4a27204e1b11294710335117284dec304L'
p3435
g2
((lp3436
g4
atp3437
Rp3438
sS'0x1449ddf7a4ea3d5d8cc33b72cd4ac1a821712b3352L'
p3439
g2
((lp3440
g4
atp3441
Rp3442
sS'0x3238d13f729779b1ae3c6f2c61cccf454ce1695512dc7d7422L'
p3443
g2
((lp3444
g4
atp3445
Rp3446
sS'0x39ab409ee22489086ebc0840dbe0933d13b5c1380eb2d5b0L'
p3447
g2
((lp3448
g4
atp3449
Rp3450
sS'0x3a5d726584873eae9dc83789cb47e0b62a45a9aef24f3e64e96073dc626L'
p3451
g2
((lp3452
g4
atp3453
Rp3454
sS'0x1ff2ca63bb7ae3885f5f6b2e1fa0a1265d8707250a00cb8564e486e64f67L'
p3455
g2
((lp3456
g4
atp3457
Rp3458
sS'0x478ea5fc8a7b9049f2243cb4a1ee965b38cccf4054870bL'
p3459
g2
((lp3460
g4
atp3461
Rp3462
sS'0xcad03d796ccde35669843de73b21be535637bb8dfbL'
p3463
g2
((lp3464
g4
atp3465
Rp3466
sS'0x190ab8c1d25a98f79b9c1924ded4e79449795e7864988c0233ec103e8L'
p3467
g2
((lp3468
g4
atp3469
Rp3470
sS'0x468f07c8b919e443710b201cf2d074ebbb08f063f229a7ddbL'
p3471
g2
((lp3472
g4
atp3473
Rp3474
sS'0xc3b19217f2c91eccf18829cb66a8b0413144bb9c636e2fcfL'
p3475
g2
((lp3476
g4
atp3477
Rp3478
sS'0x1caa8de11797eef1ce7b2b0c39031559139c971b0f146L'
p3479
g2
((lp3480
g4
atp3481
Rp3482
sS'0xcca864abce6a8ce1cd5d521c8ca50dd360ef56246a7f331b70a78f0c6L'
p3483
g2
((lp3484
g4
atp3485
Rp3486
sS'0x89c0f3867b1fd2f36914484c9610b2b68236794cec1e41c4L'
p3487
g2
((lp3488
g4
atp3489
Rp3490
sS'0x3d777734459faa4df68a3e9186a533eacfd83e29f91fa8fda4e8cb768a4feL'
p3491
g2
((lp3492
g4
atp3493
Rp3494
sS'0xf77d9b2b1cae43140ec13d968019ef18979a8baf5eaL'
p3495
g2
((lp3496
g4
atp3497
Rp3498
sS'0x3a38a397fd727de3bf3ec58225e90b41994bf37a611797dc1d8L'
p3499
g2
((lp3500
g4
atp3501
Rp3502
sS'0x2a5cccc3d087c91d8cf7f23c223b52929508fd859f68f9f8963d52be8174L'
p3503
g2
((lp3504
g4
atp3505
Rp3506
sS'0x9a743dee115f13f8315cb287a9420f64b6768491416L'
p3507
g2
((lp3508
g4
atp3509
Rp3510
sS'0x1c1920295f708a1b96055cc8ad277ac80b087b8eaL'
p3511
g2
((lp3512
g4
atp3513
Rp3514
sS'0x266f6dc78dc3ac0a9b10cb8fe80a3d3a3a56d6344d6L'
p3515
g2
((lp3516
g4
atp3517
Rp3518
sS'0x1a968bda1dd10812aeb6f0d18bf758a85910c2a3e02e796f59bL'
p3519
g2
((lp3520
g4
atp3521
Rp3522
sS'0x32203718878035412e93d6460ed6dc79ea7775046bec057L'
p3523
g2
((lp3524
g4
atp3525
Rp3526
sS'0x193f15b99ae7852018f22a26406036d5a943b814986d66ef4L'
p3527
g2
((lp3528
g4
atp3529
Rp3530
sS'0x620262bff6039c4c81cfd98e448e03a27011cc2fL'
p3531
g2
((lp3532
g4
atp3533
Rp3534
sS'0xca114ea78e664bf726347e12e8b2a827983906d394L'
p3535
g2
((lp3536
g4
atp3537
Rp3538
sS'0xe337c386806a54769a475b66f42a0e2926be83a92d66e3892L'
p3539
g2
((lp3540
g4
atp3541
Rp3542
sS'0x61badb84e1df53dbd8c18829b21e577c85deaccc7437a799cL'
p3543
g2
((lp3544
g4
atp3545
Rp3546
sS'0x2a6779c20e9c01ae03f9015a4af293fda4b4c3cdd58b2L'
p3547
g2
((lp3548
g4
atp3549
Rp3550
sS'0xa7e62e230e09f3cab91b313f60cc97942886372d02333b97245019L'
p3551
g2
((lp3552
g4
atp3553
Rp3554
sS'0x27b07460ea87894d530c7e6829e677a2ea973865b12edd9269L'
p3555
g2
((lp3556
g4
atp3557
Rp3558
sS'0x2257ee56fd2f5e6b04856816717b5f369e1ba2061131L'
p3559
g2
((lp3560
g4
atp3561
Rp3562
sS'0x68525b00afde4d421a35395f7b23cebbb041b6fcdac47349a76e3d5377f1L'
p3563
g2
((lp3564
g4
atp3565
Rp3566
sS'0xb381ceeb2e97c7ff464cbfacd2d961eb08090b8d3ad4884d639967069L'
p3567
g2
((lp3568
g4
atp3569
Rp3570
sS'0x181816e73be332a3c1a17b1463dee5720ce5825441bd004bac91eL'
p3571
g2
((lp3572
g4
atp3573
Rp3574
sS'0x1e477d758413d0315c30054ed5d14b0fe315b1d02b864a43L'
p3575
g2
((lp3576
g4
atp3577
Rp3578
sS'0x9eb9e45659de376d3a82f3bfba864532d4a587880171d618L'
p3579
g2
((lp3580
g4
atp3581
Rp3582
sS'0x70338c6a227f407ba4db8d503a0f763a40f223c9c6830742aL'
p3583
g2
((lp3584
g4
atp3585
Rp3586
sS'0x2c211917862f93e61674b46cee79c5a72a5eca7b0102004a3380bc9bbb4766aL'
p3587
g2
((lp3588
g4
atp3589
Rp3590
sS'0x73f77302ed72d1523a7b7f8056f7a8c7b1255073f0f71f2L'
p3591
g2
((lp3592
g4
atp3593
Rp3594
sS'0x6a5fe2ea2e92d55482a7195aab446f7054932ce5b2b04aa598a07206L'
p3595
g2
((lp3596
g4
atp3597
Rp3598
sS'0x9949eb2401e5a50aaccd0c53f92c54d4298fb122d303a7aa1L'
p3599
g2
((lp3600
g4
atp3601
Rp3602
sS'0x5bba8f6bf52ad612fa54112cb75d609416f9bfe79920ce258c3b975cL'
p3603
g2
((lp3604
g4
atp3605
Rp3606
sS'0x29fe0f86aa5a62f62b9993dc68e84dc5113861623a8L'
p3607
g2
((lp3608
g4
atp3609
Rp3610
sS'0x763432fb0246b6023fdaf4b7c34a42ec342c5fa26256c0cL'
p3611
g2
((lp3612
g4
atp3613
Rp3614
sS'0x1c2bef11072fe5b973d64d2be1bb83233b5d86d338e8604L'
p3615
g2
((lp3616
g4
atp3617
Rp3618
sS'0x1baede7f8af34cbde5cbd387112a1db5209a333958295e6e476f4598990L'
p3619
g2
((lp3620
g4
atp3621
Rp3622
sS'0x9562178f3fb4c6c83032169daffdba7693d7dd1957eba7aabcaed4722L'
p3623
g2
((lp3624
g4
atp3625
Rp3626
sS'0x365b975c6b5bc13668508453a629d6a95e04e7e7d0b5fe13f97941bL'
p3627
g2
((lp3628
g4
atp3629
Rp3630
sS'0x219abd1e3a4d7b50e349f97853016481d8293289d7bfL'
p3631
g2
((lp3632
g4
atp3633
Rp3634
sS'0xabcc23e80a9d3aea1a10d8ccc2b21aa6923a48881fcbeb9c5cc22L'
p3635
g2
((lp3636
g4
atp3637
Rp3638
sS'0x67f1ba9adafb5f45dfaf10a7218c38a26053243f53223c3L'
p3639
g2
((lp3640
g4
atp3641
Rp3642
sS'0xa76eaae0dc161ae1dfc04101d8dc73f3ae78ef4226bdL'
p3643
g2
((lp3644
g4
atp3645
Rp3646
sS'0x1db44677267ff8d7d8ca4de33f4519dac234efe538840dL'
p3647
g2
((lp3648
g4
atp3649
Rp3650
sS'0x14160f6faefa39b692e50b4489e54218429ae7fdbf9fL'
p3651
g2
((lp3652
g4
atp3653
Rp3654
sS'0x35b6c4caf621fbc4f388e86bcce03b964450d6e3a08c6875a5c7cL'
p3655
g2
((lp3656
g4
atp3657
Rp3658
sS'0x16f037445ac5238577f3c263816cc2ad7955236d5988cfa70f2f1055bL'
p3659
g2
((lp3660
g4
atp3661
Rp3662
sS'0x2a2730306409e0b3e63c589a7c9b2297e3abbf33aL'
p3663
g2
((lp3664
g4
atp3665
Rp3666
sS'0x487f1a20b9be116e5ab9366df7928d7f09a556b494c8979e6c9ab6cL'
p3667
g2
((lp3668
g4
atp3669
Rp3670
sS'0xd26c27b9c0aec184f8204734c2b51af7fdea8cf124c1L'
p3671
g2
((lp3672
g4
atp3673
Rp3674
sS'0x25cc8168a005f98accc401f775190e7db2281993bac6f6dL'
p3675
g2
((lp3676
g4
atp3677
Rp3678
sS'0x1e8aa87a3c70e6d111bc13c6c87fd61a59b16718d12cdc38aL'
p3679
g2
((lp3680
g4
atp3681
Rp3682
sS'0x17f7ad266f09cb588a29261b6dfd7cf09734cb1e93f807f59dL'
p3683
g2
((lp3684
g4
atp3685
Rp3686
sS'0xcdd5cba96c9e1cc472c85f2e9f6ab651a566fc4d398ab0f4fcfb84bL'
p3687
g2
((lp3688
g4
atp3689
Rp3690
sS'0x212a4ea4f2f8771a9f53db3ba345268aff143679383db37d3c8caL'
p3691
g2
((lp3692
g4
atp3693
Rp3694
sS'0x108c3601c3565cc501e9617fb4a22c0d48a0b33276L'
p3695
g2
((lp3696
g4
atp3697
Rp3698
sS'0x10994b185f965e717a64e77fbf609a5a833dbaf0f00965f1L'
p3699
g2
((lp3700
g4
atp3701
Rp3702
sS'0x2bb54694522f982fc0e9d2559d6099da60c2ed568aaL'
p3703
g2
((lp3704
g4
atp3705
Rp3706
sS'0x623f1c3eb7081dd81572f109b2a3835fd5436308a34L'
p3707
g2
((lp3708
g4
atp3709
Rp3710
sS'0xe041d22fd169c7ff8bf6e6e8ed8f78b9ab0c3de6119a1dL'
p3711
g2
((lp3712
g4
atp3713
Rp3714
sS'0x1067a04b94b61a837e8e571bf4624315493d53e0b88a683c1d075e5b3fL'
p3715
g2
((lp3716
g4
atp3717
Rp3718
sS'0xb02987e053c898d137612118397526e85a4a31dedd22L'
p3719
g2
((lp3720
g4
atp3721
Rp3722
sS'0xffafb689f3923b317b13913267248ddf4e4b453fcL'
p3723
g2
((lp3724
g4
atp3725
Rp3726
sS'0x62de52b532d9b3c86ea7058a8c041989e9bdd310cL'
p3727
g2
((lp3728
g4
atp3729
Rp3730
sS'0x2f76884154f0be72d6941240d8c2be20319c8d313L'
p3731
g2
((lp3732
g4
atp3733
Rp3734
sS'0x2d3f6f9c5f250a9f621273aac076ee0c859b4b0b7aL'
p3735
g2
((lp3736
g4
atp3737
Rp3738
sS'0xefb39cad54baaafa8da77ac5cf175f57d4d397527ff93bd063a1dL'
p3739
g2
((lp3740
g4
atp3741
Rp3742
sS'0xd9086e171363d2cf066b149fab560c6aceab263435fa46fffd66b4L'
p3743
g2
((lp3744
g4
atp3745
Rp3746
sS'0x16deddbd7dd8addb41b2724ecfb0aab8ed0182e836d40790edc2530L'
p3747
g2
((lp3748
g4
atp3749
Rp3750
sS'0x860273152d878ba034ddd2a05bb01e95d97d0f37f15L'
p3751
g2
((lp3752
g4
atp3753
Rp3754
sS'0x3a52670b5ca23c7bd529e84adff9e478ab385cf03735L'
p3755
g2
((lp3756
g4
atp3757
Rp3758
sS'0xe9014157e932df5849dbfba523fa37610a631ea527L'
p3759
g2
((lp3760
g4
atp3761
Rp3762
sS'0xc1da184302015d6c2eef1d7f7310ddf0d33eaf9a68c3db8L'
p3763
g2
((lp3764
g4
atp3765
Rp3766
sS'0x4a879c866fd13edd9e6728edd1edd557dd9203570e56825cd67d0L'
p3767
g2
((lp3768
g4
atp3769
Rp3770
sS'0x4a8343c05f3e0fb589f6bfc883e44a76aa5f05beccL'
p3771
g2
((lp3772
g4
atp3773
Rp3774
sS'0xee05324ceabfefcae667978e4df21889b38aacd50e2b2a5ba73298175L'
p3775
g2
((lp3776
g4
atp3777
Rp3778
sS'0x2353cad3c55217f54a8ed1b063832f7abda9503cae2ea4baL'
p3779
g2
((lp3780
g4
atp3781
Rp3782
sS'0x5d434e28b54aa17683bd74b7ce6dd603ec05cbe56d956L'
p3783
g2
((lp3784
g4
atp3785
Rp3786
sS'0xe5f299f6bdc85e53bf7ae20dcb738b2e39362b277fL'
p3787
g2
((lp3788
g4
atp3789
Rp3790
sS'0x3646030d70e238059072838948f4a24b3515ccef82e8dL'
p3791
g2
((lp3792
g4
atp3793
Rp3794
sS'0x1c05b56994752dd8d8eb76454109e58a6d45c617e437L'
p3795
g2
((lp3796
g4
atp3797
Rp3798
sS'0x7a7d3b386c1422e3f1f9efe373a73df387e0f813a050d3dL'
p3799
g2
((lp3800
g4
atp3801
Rp3802
sS'0x3f6e01c0cb0d8316a4ac61ee5afbfe39a22a64665862d0L'
p3803
g2
((lp3804
g4
atp3805
Rp3806
sS'0x286d1d5dfc86d322eac9135bb8bd7b8eddb2d03ab10f19bbd50f1551L'
p3807
g2
((lp3808
g4
atp3809
Rp3810
sS'0x1c40056bd73132e47d9994fad4362ce0b821b70072c47L'
p3811
g2
((lp3812
g4
atp3813
Rp3814
sS'0x11aaf9e365bf1b01cb86dce8262b3afad4003d4a002L'
p3815
g2
((lp3816
g4
atp3817
Rp3818
sS'0x13747b772c2d14e4df3fd2c560682ba05dbf45cfc81a679cfe2b8667856L'
p3819
g2
((lp3820
g4
atp3821
Rp3822
sS'0xc9d8005e977fe7570f5c96cd953374c93c1682bf49d380L'
p3823
g2
((lp3824
g4
atp3825
Rp3826
sS'0x943a9d52355e9fc748d99d8c4cc5eba7ec4459950fb6c694edc6L'
p3827
g2
((lp3828
g4
atp3829
Rp3830
sS'0x460bf7fbba6a8f95d7fe87d2ab53a054ad84109eebefddL'
p3831
g2
((lp3832
g4
atp3833
Rp3834
sS'0x15554e38bd03a0a622e1de22b45bb5b8a6c26374e827L'
p3835
g2
((lp3836
g4
atp3837
Rp3838
sS'0x126c0a347a9b8aaa5aba1c73186b5b532e6ba20d6592L'
p3839
g2
((lp3840
g4
atp3841
Rp3842
sS'0x6f406cfbb0ae6dd4a35bfa35c9dd6dbd49449d345e6a89bL'
p3843
g2
((lp3844
g4
atp3845
Rp3846
sS'0x12742bbff96250d0f76a062a4ce5809618945de003751eL'
p3847
g2
((lp3848
g4
atp3849
Rp3850
sS'0x1234fd02d7bf15599391ddf3c06eae1133f4d2ebafab416de70d37L'
p3851
g2
((lp3852
g4
atp3853
Rp3854
sS'0x34e8b84a0511d6b48f4146ecb2b1366eff7bc6f9L'
p3855
g2
((lp3856
g4
atp3857
Rp3858
sS'0x5886e5d21a65fb0cdb93db63a262a3d4b851bbd15963cf3L'
p3859
g2
((lp3860
g4
atp3861
Rp3862
sS'0xf567b6d93d90e38eaeda3a568746ac74736eb7ac9c182L'
p3863
g2
((lp3864
g4
atp3865
Rp3866
sS'0x183134c2cfcca3092278ba527406adafa04d682262af5ba387b0743L'
p3867
g2
((lp3868
g4
atp3869
Rp3870
sS'0x261223f39749b3adb3716392fdcf16e845ce5f01fe8L'
p3871
g2
((lp3872
g4
atp3873
Rp3874
sS'0x34c2d2ccd3258db8df1b3cba5926ac338c8d24442ca9L'
p3875
g2
((lp3876
g4
atp3877
Rp3878
sS'0x1f73f6d327055005a0ce1c7c7dd1b61c80e0e5f22L'
p3879
g2
((lp3880
g4
atp3881
Rp3882
sS'0x9febb9521dc89d04546d7b5c1c1d864b459a2712L'
p3883
g2
((lp3884
g4
atp3885
Rp3886
sS'0x5b3415fe3c01ff42097f705997a11c6914d86038afL'
p3887
g2
((lp3888
g4
atp3889
Rp3890
sS'0x25a9d190d2e12884111b7cbbbe7585852b203f410383cc9fL'
p3891
g2
((lp3892
g4
atp3893
Rp3894
sS'0x2ee68bc702e308f9f7dfb45c824919eb2552f2f9ee53a3ec6a83dfL'
p3895
g2
((lp3896
g4
atp3897
Rp3898
sS'0xe8918c142cabac9a4e5d0a2a8449c344c25839992cf4013256394b574064L'
p3899
g2
((lp3900
g4
atp3901
Rp3902
sS'0xf29aa31e46d8ffbd11e5894f72b32a2a6b1c84153d176L'
p3903
g2
((lp3904
g4
atp3905
Rp3906
sS'0x8289f8c5c52809bac8c7f8f1cb0af65b60cc404fcL'
p3907
g2
((lp3908
g4
atp3909
Rp3910
sS'0x4cc2ef3e46fc217ffea3b36e483045b54cfb29908842849L'
p3911
g2
((lp3912
g4
atp3913
Rp3914
sS'0x48fb878e2f7a264486d033697a670ebbd5282be3e5e63L'
p3915
g2
((lp3916
g4
atp3917
Rp3918
sS'0x54080c2c986055d1dccc9b4d04d42a115e439870af3e18a8aL'
p3919
g2
((lp3920
g4
atp3921
Rp3922
sS'0x760f864e7d80c6a623081d43dd4d09ab385b24891cfa51fa0460L'
p3923
g2
((lp3924
g4
atp3925
Rp3926
sS'0x7c8709d7e769f08a44d6119445ad07145f90fa13c4431L'
p3927
g2
((lp3928
g4
atp3929
Rp3930
sS'0x18846757a5c3e9c66c3aab3ae2ebc09846caffc19c6e8b61e36L'
p3931
g2
((lp3932
g4
atp3933
Rp3934
sS'0x3fc91a63902172ac686285f469810be452f96f0207fcebc8L'
p3935
g2
((lp3936
g4
atp3937
Rp3938
sS'0x119797775ffe2c6fc138fe10ddd64ac37c6909b489L'
p3939
g2
((lp3940
g4
atp3941
Rp3942
sS'0x1549c81027dfa8b95c3a006e992cc5f9f997f868c8a67f71L'
p3943
g2
((lp3944
g4
atp3945
Rp3946
sS'0x393372b5a198e6acccaeaf66cdecef4d295f256e37686cL'
p3947
g2
((lp3948
g4
atp3949
Rp3950
sS'0x28a8a6a6350f6d97d1eebb089e5f1b74989591c324c729e2f655e7L'
p3951
g2
((lp3952
g4
atp3953
Rp3954
sS'0xb1bf95f9af3aa271794c799e48566c6038e75bf3cf1706af18779L'
p3955
g2
((lp3956
g4
atp3957
Rp3958
sS'0x160df9e76fa6e5c315a91fca25e66fddaeea315b3452cL'
p3959
g2
((lp3960
g4
atp3961
Rp3962
sS'0x11f179bbcc546575f2ea0ef7db35e330be844bb3f0acd9bL'
p3963
g2
((lp3964
g4
atp3965
Rp3966
sS'0x16f77b1b4a4d0a8760b50c63a9ac91bf8a6283b7721e559cL'
p3967
g2
((lp3968
g4
atp3969
Rp3970
sS'0x85e2ec4b440bf6e22266932d1fc88aead3cdd71886e40e3aea9765eae6L'
p3971
g2
((lp3972
g4
atp3973
Rp3974
sS'0x83997cd0d43bc9d93d18ec2afe9ffcb123c38d844L'
p3975
g2
((lp3976
g4
atp3977
Rp3978
sS'0x5279a86d0c1d7a568e95a687f706c97abb6d756a968ab8L'
p3979
g2
((lp3980
g4
atp3981
Rp3982
sS'0xd97d4e622d3a3457914e04b1abdc7fb88aa58793ea74668a8806950L'
p3983
g2
((lp3984
g4
atp3985
Rp3986
sS'0x7a8eaac179dd1a6205efb295e77b8987df3cad2340f7eL'
p3987
g2
((lp3988
g4
atp3989
Rp3990
sS'0x11f891d819751ffcb5a5d2d9804092095a1a09183385889e1b981b587f055L'
p3991
g2
((lp3992
g4
atp3993
Rp3994
sS'0x1d8f35c5f3d374b39b089398945acb1087fbfd7029ead856dL'
p3995
g2
((lp3996
g4
atp3997
Rp3998
sS'0xb3b9921acc9a21bdc81c53be33a7ce1257d3f69b512bd7c45543L'
p3999
g2
((lp4000
g4
atp4001
Rp4002
sS'0x1847c08937e3b0e99b883e28ed05989b916c8dcc22e8L'
p4003
g2
((lp4004
g4
atp4005
Rp4006
sS'0x47e707734da955a43f714fa35a75facb659eda3aa9c6223dfbL'
p4007
g2
((lp4008
g4
atp4009
Rp4010
sS'0x68530e1ae0c049e7f287d933d680a5f710db9bb2L'
p4011
g2
((lp4012
g4
atp4013
Rp4014
sS'0x8d26f2f1e6dc438f5defca26eab008edf16449aefce2ac36e4c53L'
p4015
g2
((lp4016
g4
atp4017
Rp4018
sS'0x7d6693f8d15a5e8cfae9464afbbc3c2fa2500e8bd90ce126107L'
p4019
g2
((lp4020
g4
atp4021
Rp4022
sS'0x16528b25d902777531d2c752920324c4db2a7b7baL'
p4023
g2
((lp4024
g4
atp4025
Rp4026
sS'0x347a7a221c115ca1ae678b21c4b31661d4d18f9bL'
p4027
g2
((lp4028
g4
atp4029
Rp4030
sS'0x449cd694804b1e3ff1a930c47823d5cf04a0fbeeea1788d013L'
p4031
g2
((lp4032
g4
atp4033
Rp4034
sS'0xb6432ac859fefc63c1284c97b24af1ce3ff9139ce10862L'
p4035
g2
((lp4036
g4
atp4037
Rp4038
sS'0x1ed8a0d2a237448b1d8f4e064831c93ed7e47deef60c098ebL'
p4039
g2
((lp4040
g4
atp4041
Rp4042
sS'0x597cc694e65960be4a47d9b020387f997f845618c3afL'
p4043
g2
((lp4044
g4
atp4045
Rp4046
sS'0x2c84d6ade7bd81b7e56785285acb38c4f20c2ddc7e7c7e64e82a7767L'
p4047
g2
((lp4048
g4
atp4049
Rp4050
sS'0x45113ece69cae42ed91f7eaf55f81c7a37868891a1b6626eL'
p4051
g2
((lp4052
g4
atp4053
Rp4054
sS'0x2978118b02e4e97f6ec69a0b64ae242345ed4fd74L'
p4055
g2
((lp4056
g4
atp4057
Rp4058
sS'0x580e65944f681d1c7a274af5e71c9005f58b0d986a3715b336d8aL'
p4059
g2
((lp4060
g4
atp4061
Rp4062
sS'0x4c7596f2c351045b2420673136a075963183384cfff328afd9f60L'
p4063
g2
((lp4064
g4
atp4065
Rp4066
sS'0x1a725aec1a15538850509577991b72107558b60773ea4e1083278a328L'
p4067
g2
((lp4068
g4
atp4069
Rp4070
sS'0x197c87a6411affc59ac35060f7cf21abae498789d7ec1d72c0cb9L'
p4071
g2
((lp4072
g4
atp4073
Rp4074
sS'0x74af4d01714d634158ef4b1a6c5ff19f823db68b929993cL'
p4075
g2
((lp4076
g4
atp4077
Rp4078
sS'0x308063666626e8608b62f84a7a1e4eaa1f5cec63b2b2fa29520L'
p4079
g2
((lp4080
g4
atp4081
Rp4082
sS'0x3c26db0d03d604268cda0f9705ca0ac730b9096aL'
p4083
g2
((lp4084
g4
atp4085
Rp4086
sS'0x2ce36ae8e1722047b496df00211e45ee2a3e6d1bb434b0bL'
p4087
g2
((lp4088
g4
atp4089
Rp4090
sS'0x115415710ca19f174deb8c8d3bbf1dcf4f6abcfbbfL'
p4091
g2
((lp4092
g4
atp4093
Rp4094
sS'0x3d7cc89516ae15c9dc2f589ad85d7824617470e5327f800feffac3dfdL'
p4095
g2
((lp4096
g4
atp4097
Rp4098
sS'0x1dc2dad03f0e8e457cd3ebcfe1c9b3b61a318f8ca4fdcb715L'
p4099
g2
((lp4100
g4
atp4101
Rp4102
sS'0x4dfc1d78a0f5a06ac0e066bfd6802fc5aceef9ea8408866def0L'
p4103
g2
((lp4104
g4
atp4105
Rp4106
sS'0x25e700e1bd3c73f9aafb64c6e088fd7d2875e23c0e6L'
p4107
g2
((lp4108
g4
atp4109
Rp4110
sS'0xd79b474a9824660c39f1e0333a6f4d8d86c719f86fb31258526fa16L'
p4111
g2
((lp4112
g4
atp4113
Rp4114
sS'0x47e4a4dd8fa1547010c42626c4bc620c37a96c3666abd9439ddL'
p4115
g2
((lp4116
g4
atp4117
Rp4118
sS'0x5d42598ba57328a472f1ed0490ad3e9e183b01120ebc80902bb6baL'
p4119
g2
((lp4120
g4
atp4121
Rp4122
sS'0xbbbcb7edf316008b1cb234a1b3f484ef54e727a1c905396bL'
p4123
g2
((lp4124
g4
atp4125
Rp4126
sS'0x3f8e91a493acbff19fd036c88ad5e638013ab4ade9fc49e38L'
p4127
g2
((lp4128
g4
atp4129
Rp4130
sS'0x6e6d1a9c201c63c77dffcd228ae59c1389bb867b4b465fbeaL'
p4131
g2
((lp4132
g4
atp4133
Rp4134
sS'0x12153f650fea2f6e5081abd2609069e67b11d2b08abde64b445eL'
p4135
g2
((lp4136
g4
atp4137
Rp4138
sS'0x7a2ba44ef49c66367ec0878b256959d4ef86564870102L'
p4139
g2
((lp4140
g4
atp4141
Rp4142
sS'0x5e13d139611a6d5fa7478b38da6c178bd444452415d38L'
p4143
g2
((lp4144
g4
atp4145
Rp4146
sS'0x166592d8ded22676159eb99dca04ff496d4e43aaedL'
p4147
g2
((lp4148
g4
atp4149
Rp4150
sS'0x657fc3d398ed8436dff8279025754d6561420ecc85L'
p4151
g2
((lp4152
g4
atp4153
Rp4154
sS'0x20ce83ce1f4d21c807511b85d8f85b0f8e5ea66289d01L'
p4155
g2
((lp4156
g4
atp4157
Rp4158
sS'0x1270eb6d6b33b3918545fcdc1317fe14e63a41e42L'
p4159
g2
((lp4160
g4
atp4161
Rp4162
sS'0x1ca412d787ba047f8d8bfba45c9228436be8ccc7a5eL'
p4163
g2
((lp4164
g4
atp4165
Rp4166
sS'0x13683687ff24e9407991d5424607d4b4c176d1d6e1b977a293aL'
p4167
g2
((lp4168
g4
atp4169
Rp4170
sS'0x47b57bda64d5d180db0e354d1cb2ddd4212ec87124dL'
p4171
g2
((lp4172
g4
atp4173
Rp4174
sS'0x11a3b7563103bb5462ecdd05865286726e6cf87841832cL'
p4175
g2
((lp4176
g4
atp4177
Rp4178
sS'0x1132fae43df808239c8e13a8f73ff7008a85b8e8d65b2f9e9d5f492abL'
p4179
g2
((lp4180
g4
atp4181
Rp4182
sS'0x50392e64b1d01f48772f7f6cdf5ac78a3df52a1d7465L'
p4183
g2
((lp4184
g4
atp4185
Rp4186
sS'0x13a47e613992e8bf255fb2c04cb107426e0e70300777401c8efa9cL'
p4187
g2
((lp4188
g4
atp4189
Rp4190
sS'0x54965d018d47e63a511a1542c58a232a6c58fb2d82e24e0eL'
p4191
g2
((lp4192
g4
atp4193
Rp4194
sS'0xe5374a4af4b9ba8a858d1da4200f485361024c7afdL'
p4195
g2
((lp4196
g4
atp4197
Rp4198
sS'0xe648cdc726d5dc8946316548632fe835f35a87a76dc8725L'
p4199
g2
((lp4200
g4
atp4201
Rp4202
sS'0x67c2927b9645c4c4a691fce2df4c928007486546356d7ddebdb3f7b4f8L'
p4203
g2
((lp4204
g4
atp4205
Rp4206
sS'0x963fa58f7ade8935bded8214194a36a50d46ee41299348L'
p4207
g2
((lp4208
g4
atp4209
Rp4210
sS'0xab82c83ba5a65b2e1a769c1a82c1a27eca195f3467aL'
p4211
g2
((lp4212
g4
atp4213
Rp4214
sS'0x203646bb81fd7bae605d8919546e74d7d03e213176cf7aa1de8e7bL'
p4215
g2
((lp4216
g4
atp4217
Rp4218
sS'0x1372ccb78a0784e2ab01be60e356a75fe4604694b5ea479851459b9db030fa7L'
p4219
g2
((lp4220
g4
atp4221
Rp4222
sS'0x3ab867e6a04213962a7f69ee932f7acddd20836a498fL'
p4223
g2
((lp4224
g4
atp4225
Rp4226
sS'0x46ca90e4d6f9fbbc833689402a446a2cc66ed224507aL'
p4227
g2
((lp4228
g4
atp4229
Rp4230
sS'0x1513ce5081689e24c62111cf1da17e5bcddf0e36f6L'
p4231
g2
((lp4232
g4
atp4233
Rp4234
sS'0x18a6fd39c0c939824bcd2abe56eca80021ccf5cec6L'
p4235
g2
((lp4236
g4
atp4237
Rp4238
sS'0xf826f926c0c739d58736675a6a30f8936180ea12243890757L'
p4239
g2
((lp4240
g4
atp4241
Rp4242
sS'0x1056d891981a388913fcde69fc5d96ce04cfb52a57824b1eL'
p4243
g2
((lp4244
g4
atp4245
Rp4246
sS'0x10bd539e0f5ca812d4808d29d83a4d963f0cb068b426L'
p4247
g2
((lp4248
g4
atp4249
Rp4250
sS'0x5946ebb47aa84cc9e2bfbf5dfcadfc412ffb2ed6f9eL'
p4251
g2
((lp4252
g4
atp4253
Rp4254
sS'0xceb353f71dacd52a484309d59ad7019b3594f9d4e4f1c38bL'
p4255
g2
((lp4256
g4
atp4257
Rp4258
sS'0x508cbc858b5e7f36d6e939251bdc7390e82b8764af54401ca75L'
p4259
g2
((lp4260
g4
atp4261
Rp4262
sS'0x916c7704a54d35a0d77586d0a3d4ff1e5d5d9dd31433L'
p4263
g2
((lp4264
g4
atp4265
Rp4266
sS'0x2f86f3306102b43c6b3d1b3cf0f0ef0b64e8e9edeb5L'
p4267
g2
((lp4268
g4
atp4269
Rp4270
sS'0x81bedc1e95e534fa68cc187ee232bb29fbd83b00268eL'
p4271
g2
((lp4272
g4
atp4273
Rp4274
sS'0x7dfdf101afdf6642c5358936342945efe01c2fb745fL'
p4275
g2
((lp4276
g4
atp4277
Rp4278
sS'0x3703645636cd8bd76fe6a87711e0f7db52a2e6d332d2cd4L'
p4279
g2
((lp4280
g4
atp4281
Rp4282
sS'0x4e4f5f0864209f4bc72275574520a911d1578e2a11e79L'
p4283
g2
((lp4284
g4
atp4285
Rp4286
sS'0x5cc45e5f243bff1f2c9bed510726dd6a767bc263430170785f0L'
p4287
g2
((lp4288
g4
atp4289
Rp4290
sS'0xd4de7ad000d5cb7f39299e9df42b6a1b612378c5f444873dL'
p4291
g2
((lp4292
g4
atp4293
Rp4294
sS'0x5aa46c167f595e505e0523c50c3c9cef09512ed445f09c65e3b862L'
p4295
g2
((lp4296
g4
atp4297
Rp4298
sS'0x9563a3dd6ca2818f437db6768f6da16ad61d4afd1c5f0dc2L'
p4299
g2
((lp4300
g4
atp4301
Rp4302
sS'0xfdc31705535a2095a995648655bbc3987ee727eeda5cd8e0L'
p4303
g2
((lp4304
g4
atp4305
Rp4306
sS'0x4bbd412cd1adeabcf005fd7acbf8be42583aaa1ca5b75038fL'
p4307
g2
((lp4308
g4
atp4309
Rp4310
sS'0x8b2d4cdb4e33262d1ba7020a24397adef61eb8dfbf76d1fL'
p4311
g2
((lp4312
g4
atp4313
Rp4314
sS'0x14a3ba688b85123fae74af744c1996ee1de272c7edf4885569L'
p4315
g2
((lp4316
g4
atp4317
Rp4318
sS'0x24fd38b6f4be68228ec5c59fb7e9cf91deaa4fe37a884a721dL'
p4319
g2
((lp4320
g4
atp4321
Rp4322
sS'0x1c5f3fe6179aabf8d89e599f09d8393180cca254af5L'
p4323
g2
((lp4324
g4
atp4325
Rp4326
sS'0x4a3119d26af0083c20805270533dd75c2419f0b27cL'
p4327
g2
((lp4328
g4
atp4329
Rp4330
sS'0x87c711725138929ad222c86c64d08a80a9d224afc49c42fd0e5cL'
p4331
g2
((lp4332
g4
atp4333
Rp4334
sS'0x60b3694cb5f14838bad62ab31dc61059703a4b87ea8L'
p4335
g2
((lp4336
g4
atp4337
Rp4338
sS'0x7010bc7c8121892cc1a35b6eb9518f0832b906d1ed5ba061e164d6L'
p4339
g2
((lp4340
g4
atp4341
Rp4342
sS'0x9130ff62c95d16f7c6f81e5336cc368f45205c1dd79856feee0ea1b77L'
p4343
g2
((lp4344
g4
atp4345
Rp4346
sS'0x5ad67860c85d95bca8ebc5299a46167e2120712f35a224f3L'
p4347
g2
((lp4348
g4
atp4349
Rp4350
sS'0x9b8aad77491d6d2a33ad849b07b11696dc767680f94f2002af032747L'
p4351
g2
((lp4352
g4
atp4353
Rp4354
sS'0xf0ab53822dacc3d9802ff506cb3f3eeb5cc1d92f3a168444bL'
p4355
g2
((lp4356
g4
atp4357
Rp4358
sS'0x4b5dbbd788f3bdb896e7cc3438473ef77f47af04ed0b2f11fccda838L'
p4359
g2
((lp4360
g4
atp4361
Rp4362
sS'0x3fe86b4cc675184d8f1b90834d099c44cce4eb3817L'
p4363
g2
((lp4364
g4
atp4365
Rp4366
sS'0x197553456f3aa91b57d71a72c7cbe02f04c4d085fdd4dfa38f7abL'
p4367
g2
((lp4368
g4
atp4369
Rp4370
sS'0x4a555d869121183ae102e395ba432262b223a221c3a5f2cL'
p4371
g2
((lp4372
g4
atp4373
Rp4374
sS'0x7dc4d822dcb122185678e49fcd386fd72fa763e86bafee29c88012L'
p4375
g2
((lp4376
g4
atp4377
Rp4378
sS'0xf7737a0de95d1bc3d99e88596da2630a893e23f2a564a68463a1c4931L'
p4379
g2
((lp4380
g4
atp4381
Rp4382
sS'0x2eb717773a7a918073caf70b4a8940f969a70a57883605afdc64823ead79L'
p4383
g2
((lp4384
g4
atp4385
Rp4386
sS'0x129469782404637446ae36c1b0e1a0ef775e0ca5c47253L'
p4387
g2
((lp4388
g4
atp4389
Rp4390
sS'0x3e6b4fb4bd588feb32a6afa5a9e0a5a6b402a9401987f36005dL'
p4391
g2
((lp4392
g4
atp4393
Rp4394
sS'0x9a9df4eaec0982d681534ef7b9dbb12dbd6ebc9f933651f592L'
p4395
g2
((lp4396
g4
atp4397
Rp4398
sS'0xe03fd4851a5d855006e83c8fad8dc7b932e1206a49L'
p4399
g2
((lp4400
g4
atp4401
Rp4402
sS'0x59956be3e6a305ffdee578b8be92edd97d6f5a46da2dL'
p4403
g2
((lp4404
g4
atp4405
Rp4406
sS'0xd9badad94e31bb684f88ba92e28a415993701d771fc1d76afdbaac9L'
p4407
g2
((lp4408
g4
atp4409
Rp4410
sS'0x1a1a708a3568264f7703a6fd0efe0d99d0ffcdcfe72a9L'
p4411
g2
((lp4412
g4
atp4413
Rp4414
sS'0x4d7718bafcb62e2ed5242a88a96444197365d7341eb5abfL'
p4415
g2
((lp4416
g4
atp4417
Rp4418
sS'0xf20ed06ba30ad6c4a775a4a895995615e53f6527e6L'
p4419
g2
((lp4420
g4
atp4421
Rp4422
sS'0x8b7868963327c07860416bb78d94c6a1fb3052bb2e139ccdc7218925f78fcL'
p4423
g2
((lp4424
g4
atp4425
Rp4426
sS'0x67aaa1606bd89cb7cb92d663f3009ab50bace67de48L'
p4427
g2
((lp4428
g4
atp4429
Rp4430
sS'0x309c74a7c461b23e0518c8938c90b6d044ffd2eaaaL'
p4431
g2
((lp4432
g4
atp4433
Rp4434
sS'0x156ad7ef2f9302d3565b3b9806a5439a898cf8148c7184a4231ab07f1b4d5cbL'
p4435
g2
((lp4436
g4
atp4437
Rp4438
sS'0x89b4564fa52450c0c93e65bada196721085629b05L'
p4439
g2
((lp4440
g4
atp4441
Rp4442
sS'0x181d6190c943fae1ff3d9c2fe2884df1c6febd615309ea493537aeL'
p4443
g2
((lp4444
g4
atp4445
Rp4446
sS'0x369ef708873d4048dcdac26f9d01474c6e13c73aee5d82fcc46dcfL'
p4447
g2
((lp4448
g4
atp4449
Rp4450
sS'0x74e76a8dc8212a120a4debddfe9a38e548cbfe86db7816a4L'
p4451
g2
((lp4452
g4
atp4453
Rp4454
sS'0x6d4629407bc68418d2bcbe37724cf1aa2e04bdc3048a18fe9e74e4b88aa9L'
p4455
g2
((lp4456
g4
atp4457
Rp4458
sS'0x7951d635e26861f84a86569742f629977033bb91a57b61e53a0cL'
p4459
g2
((lp4460
g4
atp4461
Rp4462
sS'0xdacfcd916c92b63165518670e07565d4530bdc6c5L'
p4463
g2
((lp4464
g4
atp4465
Rp4466
sS'0xb948a44e63442768d6f9dcf9b3b6d3ded7eb361c76L'
p4467
g2
((lp4468
g4
atp4469
Rp4470
sS'0x3f1cfefbb6c54e081e5ae92fd51e2556d32f56617fbde7358bL'
p4471
g2
((lp4472
g4
atp4473
Rp4474
sS'0xdd1d3162df6ab5f73320e20a3d036f35402c4303ce9de12ccL'
p4475
g2
((lp4476
g4
atp4477
Rp4478
sS'0x3bfd332ac8441bf4bc70938dfa38311f600fada32e937336bcL'
p4479
g2
((lp4480
g4
atp4481
Rp4482
sS'0x3264204288159f5b0356a75431c4a0b8c255ad96970a2L'
p4483
g2
((lp4484
g4
atp4485
Rp4486
sS'0x2222d179af8f51cd02303e94e0d67de1d0f6d820960cc054a882d7cL'
p4487
g2
((lp4488
g4
atp4489
Rp4490
sS'0x102acbccccb62701e6f30d60b49433f2806d0420280866113e6L'
p4491
g2
((lp4492
g4
atp4493
Rp4494
sS'0x24e64a67f4ea6419464faff3f366764d4ee4bc453L'
p4495
g2
((lp4496
g4
atp4497
Rp4498
sS'0x5a7f08973378186f44b122ce57aed104e7819b675L'
p4499
g2
((lp4500
g4
atp4501
Rp4502
sS'0x2ca750a6440a977e748b76f8f2bdfb7e6899ef00803L'
p4503
g2
((lp4504
g4
atp4505
Rp4506
sS'0xcfd44ba1f24bab85596fa54a75079d2ccc0c8186f6b6b90L'
p4507
g2
((lp4508
g4
atp4509
Rp4510
sS'0x18d3f282ab61763e84747d2fe367557adeed21c880L'
p4511
g2
((lp4512
g4
atp4513
Rp4514
sS'0xaca1131178daa9b004e14618cfde6ece252ff3d5a764583e0a4bL'
p4515
g2
((lp4516
g4
atp4517
Rp4518
sS'0x44abaad54d2295cd9c30f90fd7f5db1d8db2806c6325a2b35c2c60e7L'
p4519
g2
((lp4520
g4
atp4521
Rp4522
sS'0x577e019319208d67f4216fc9f4ca597f1d77d82d5b7e230b60668fc11L'
p4523
g2
((lp4524
g4
atp4525
Rp4526
sS'0x11369e4f5880cac369c9ce7e09c2899a4136b738b27f32L'
p4527
g2
((lp4528
g4
atp4529
Rp4530
sS'0x86a5c932ef72acb0e2b569dd676b53f661842f91b68785e3L'
p4531
g2
((lp4532
g4
atp4533
Rp4534
sS'0x1d81fe552f596ff4dc510ea9d33d0f547a27db3a1dff1f8c8af69909L'
p4535
g2
((lp4536
g4
atp4537
Rp4538
sS'0x4c9d0e62a7a74e416edaac3a8323c6da04918f3ea9L'
p4539
g2
((lp4540
g4
atp4541
Rp4542
sS'0x10536426a6d26fb9cf8b4a39fbbacd35ce35b55dba3f7458a5ec6d4f335L'
p4543
g2
((lp4544
g4
atp4545
Rp4546
sS'0x1cfd9dec0c4f324c206bfc308a599150ba0507bc43bee9ba734L'
p4547
g2
((lp4548
g4
atp4549
Rp4550
sS'0x3bb97349125e61c0c83d9f984db89ac55b91f072902L'
p4551
g2
((lp4552
g4
atp4553
Rp4554
sS'0x26c19fbe60f0fc37b7c1f4ce9d4823af381a742b272e47886L'
p4555
g2
((lp4556
g4
atp4557
Rp4558
sS'0x1108369232fb4ffb8c09970f4d4d3c5e267a7390fec8c3557L'
p4559
g2
((lp4560
g4
atp4561
Rp4562
sS'0x3c8167e4d810a50a3b68cbc3e29b32d4de81ef591f7c2b0edc00673b38d07L'
p4563
g2
((lp4564
g4
atp4565
Rp4566
sS'0xec40d35756e801271fe20fc168ac5ab947df3e20324fL'
p4567
g2
((lp4568
g4
atp4569
Rp4570
sS'0x36789a340fef87528b7e5377f785dc75a6bf525cbc0L'
p4571
g2
((lp4572
g4
atp4573
Rp4574
sS'0x167376f3f329570c875b2951fd1877289854e14d08d480c66aL'
p4575
g2
((lp4576
g4
atp4577
Rp4578
sS'0xdaf297a1e9cb17fd1378a51488f688a30157601acd1dcL'
p4579
g2
((lp4580
g4
atp4581
Rp4582
sS'0xc998076b98e61005433e1dc96177acd460c4a5350f0755L'
p4583
g2
((lp4584
g4
atp4585
Rp4586
sS'0x2a4217c712f8e221ddc1b6a017963d90924520e3ba2a59f51b759a61fbL'
p4587
g2
((lp4588
g4
atp4589
Rp4590
sS'0xa3dce51995b7c1b132ceca14ad254deb4bbdbdb510fe0b41f30febL'
p4591
g2
((lp4592
g4
atp4593
Rp4594
sS'0x8e99dc58532dfda0bfe5867ed13e350e5d4537c9c94L'
p4595
g2
((lp4596
g4
atp4597
Rp4598
sS'0x1f416c77fbf72d5cb8fd90a4080e5fd1a52a5e7f740L'
p4599
g2
((lp4600
g4
atp4601
Rp4602
sS'0xae712b2a78ac9d63aa5921a5b598584a2c04759303L'
p4603
g2
((lp4604
g4
atp4605
Rp4606
sS'0xe34e3e101db5e1beed086bc9252862324b8734d0L'
p4607
g2
((lp4608
g4
atp4609
Rp4610
sS'0x1289f69e4ce78dec75120db0c2d0e4f8a42c610efc7L'
p4611
g2
((lp4612
g4
atp4613
Rp4614
sS'0x13e13d9976a892fa6efb75b20f4c4be7e775a8bafL'
p4615
g2
((lp4616
g4
atp4617
Rp4618
sS'0x3d1ddd13f8bcc2d181194724f4c7a4d4327ccf116edL'
p4619
g2
((lp4620
g4
atp4621
Rp4622
sS'0xb58437ae8831ef1eb23a67bf02a8224ec3e22fbe3112970c973bcf79a0083L'
p4623
g2
((lp4624
g4
atp4625
Rp4626
sS'0x3d98ba2acacc00c54c0194e51a581c36692ab2f7a0b5c0L'
p4627
g2
((lp4628
g4
atp4629
Rp4630
sS'0x144059ff8f903645b5c8534f187d95a762d74d3ae1da11L'
p4631
g2
((lp4632
g4
atp4633
Rp4634
sS'0x74557158e29d7380b4bb14eda71e0973cb0d69021bd63f0L'
p4635
g2
((lp4636
g4
atp4637
Rp4638
sS'0x15eb63faa0e6cc232c23ff302ffcbe0d1bb4c50c8567771d1L'
p4639
g2
((lp4640
g4
atp4641
Rp4642
sS'0xd7222a7c1aee9bbb88594dbd3a391ce66644712a26bL'
p4643
g2
((lp4644
g4
atp4645
Rp4646
sS'0xa6dfc7b2d610a27a0b395cd24716067dac94202673eL'
p4647
g2
((lp4648
g4
atp4649
Rp4650
sS'0x28edc66110f5ae306f4309fb1cfe4bc757037d2768eaa65L'
p4651
g2
((lp4652
g4
atp4653
Rp4654
sS'0xb44ecf146d5e4aa54267f4545d31e424f48a0ec1L'
p4655
g2
((lp4656
g4
atp4657
Rp4658
sS'0xafe1a15f0958d109108488c5f951562d572751d5a3L'
p4659
g2
((lp4660
g4
atp4661
Rp4662
sS'0x12a7cc3cc8abc59e65bed763854506edeeade62a74d44f6f5b9dacL'
p4663
g2
((lp4664
g4
atp4665
Rp4666
sS'0x147eed87078f5c989d3ea9ec1a2f1a97ffeb34c25edfd4471cbb9a185L'
p4667
g2
((lp4668
g4
atp4669
Rp4670
sS'0x4348001662e5b5818944614b929c664057277269eecd54L'
p4671
g2
((lp4672
g4
atp4673
Rp4674
sS'0xbfcc693611e4e1afde56e356ba68f22047cdef5c674b678ff8bdL'
p4675
g2
((lp4676
g4
atp4677
Rp4678
sS'0x5075f760301d474b09a318918d51ee54dad19eabe576c49691bL'
p4679
g2
((lp4680
g4
atp4681
Rp4682
sS'0x16b0fd59698c5d467b29d9d9faae9210665321ad4523aL'
p4683
g2
((lp4684
g4
atp4685
Rp4686
sS'0xa27b7a6072efed0fd894d33397f0d93e748d2a18L'
p4687
g2
((lp4688
g4
atp4689
Rp4690
sS'0x1c414e17395653533a174990e71828c9649c321bb2609da0dL'
p4691
g2
((lp4692
g4
atp4693
Rp4694
sS'0x7d66f5679a5026fd4197825edaf781b81d23089bc074L'
p4695
g2
((lp4696
g4
atp4697
Rp4698
sS'0x72a4c31df8ef6c6564851789068edb163d73ef89eL'
p4699
g2
((lp4700
g4
atp4701
Rp4702
sS'0x809cb304316a8db1e00119a548709a2dc31711773d7a9c13e94d3L'
p4703
g2
((lp4704
g4
atp4705
Rp4706
sS'0x10b1bcd3b96b56eab7a8dec9fcdfbd6feae3f388484312L'
p4707
g2
((lp4708
g4
atp4709
Rp4710
sS'0x1133f87766aa5a99036e10964776913bb299062cc6L'
p4711
g2
((lp4712
g4
atp4713
Rp4714
sS'0x96b1a07bd74fd5231a298d8496aafad580ee5699ca5d611eL'
p4715
g2
((lp4716
g4
atp4717
Rp4718
sS'0x28f9c6983049e3b391abe8b2660b5577832478690e53aL'
p4719
g2
((lp4720
g4
atp4721
Rp4722
sS'0x342e751584635b89500585f0e06c8b8ebc72fab054d117d9a585L'
p4723
g2
((lp4724
g4
atp4725
Rp4726
sS'0x16902a121af1433d75504a6e35caac95506e0aad610f767892e1b029f81b8L'
p4727
g2
((lp4728
g4
atp4729
Rp4730
sS'0x318819236caa93092299fce67b7a69188268fd7ce40d934a11ab23L'
p4731
g2
((lp4732
g4
atp4733
Rp4734
sS'0x197d4dda5e70cedbe6329247d7feea98216f7c5b7448L'
p4735
g2
((lp4736
g4
atp4737
Rp4738
sS'0x4ed4f79932aed588c366cf80cdc8ad5a130765d07b4f049bf3d0934859657L'
p4739
g2
((lp4740
g4
atp4741
Rp4742
sS'0x4000cdf8751affa84a64877088dc4652567975e5ed42L'
p4743
g2
((lp4744
g4
atp4745
Rp4746
sS'0x7761d929177c23a03fe065c272a30589e2416baf25bb8a2b4fcb1efaL'
p4747
g2
((lp4748
g4
atp4749
Rp4750
sS'0xc00331fb85677b4b2ca14d2cf2cc35b8ad6755d52ed2L'
p4751
g2
((lp4752
g4
atp4753
Rp4754
sS'0x4e497b3d77e216984d437d6fca7afc8036a9369e5f90916eL'
p4755
g2
((lp4756
g4
atp4757
Rp4758
sS'0xbce9e7fa8ad997781bcbd92cc11e307529f3a4b8fL'
p4759
g2
((lp4760
g4
atp4761
Rp4762
sS'0x4a4eef4f2a814bd35541439396c5257b851dd56133fL'
p4763
g2
((lp4764
g4
atp4765
Rp4766
sS'0x30ebfa7e54d0bfea9650cc279cd7220d9b06bc1d8e26bc73d93eL'
p4767
g2
((lp4768
g4
atp4769
Rp4770
sS'0x9acad2062db849409022334b1a91e3bab003d991ac80c30064fab919eL'
p4771
g2
((lp4772
g4
atp4773
Rp4774
sS'0x4ac09b4a8c5241e07f15015735afdb56641871bf7b3338L'
p4775
g2
((lp4776
g4
atp4777
Rp4778
sS'0x38ec3b9b32a4962f54c1adc998f99083c8554bc7efaL'
p4779
g2
((lp4780
g4
atp4781
Rp4782
sS'0x50a53d6760e4f33109326a6a1af782ed05797938L'
p4783
g2
((lp4784
g4
atp4785
Rp4786
sS'0x1dadbb6c344f696b8a9e4975240753f348027e455a211L'
p4787
g2
((lp4788
g4
atp4789
Rp4790
sS'0x4412f9039801bd02f085986609cd12a0b4d84176ead61L'
p4791
g2
((lp4792
g4
atp4793
Rp4794
sS'0x16316f5ae3844df7fcf1bdcae201aa41157920b4add8deL'
p4795
g2
((lp4796
g4
atp4797
Rp4798
sS'0x52a62b03ac89559caad14fefb28067e070a7ae7ddf18d60a3b0750d9aa4fL'
p4799
g2
((lp4800
g4
atp4801
Rp4802
sS'0x1509aa53e74e7855b1af00a082e8e7ad5431ac9b57843722fcL'
p4803
g2
((lp4804
g4
atp4805
Rp4806
sS'0x142b22a19d5ae1ae13cd95fb0311eefd9d4883064477514a3bb6bc7e7d3b3L'
p4807
g2
((lp4808
g4
atp4809
Rp4810
sS'0x1f3dbffcc52fda93b5360f1ca614f5a6ce7fde8a85L'
p4811
g2
((lp4812
g4
atp4813
Rp4814
sS'0x370fd532c076bcca41753584cf41a109ddf4c9a9bL'
p4815
g2
((lp4816
g4
atp4817
Rp4818
sS'0xd9e507094de74e4c636e4ed69a508f793141cc9aL'
p4819
g2
((lp4820
g4
atp4821
Rp4822
sS'0x7cabd27064dbe40c09d09554ac0437522496ff51fbeL'
p4823
g2
((lp4824
g4
atp4825
Rp4826
sS'0xc54683cfc02ca4a30b625256fa1f0c93eedcd2f6cec13c168L'
p4827
g2
((lp4828
g4
atp4829
Rp4830
sS'0x1f240a469999065990ef4fcbe6dad203d85574a779c52adL'
p4831
g2
((lp4832
g4
atp4833
Rp4834
sS'0x4120a5709b5e071b3d92bd2e8a8ab524b40e5ea82b26bef27ab764b29L'
p4835
g2
((lp4836
g4
atp4837
Rp4838
sS'0x37f764b65a03512bd679ed8b74c245d2fe741c9a55ffdb538c5239L'
p4839
g2
((lp4840
g4
atp4841
Rp4842
sS'0x67b99928357d6f6390094c97aa9459cb167f8bbabb28dd625c0cb014d69213L'
p4843
g2
((lp4844
g4
atp4845
Rp4846
sS'0x3d080d4c6f231cc97a1c55517c33d595bf3756ab8f8L'
p4847
g2
((lp4848
g4
atp4849
Rp4850
sS'0x6519a162105f2fd2e33e3a521e6c86d862fd4a7344L'
p4851
g2
((lp4852
g4
atp4853
Rp4854
sS'0x2b3f7e096661bfa7997fdce502e17cdea811ee4f7376L'
p4855
g2
((lp4856
g4
atp4857
Rp4858
sS'0x44298b39295f34c8d160fe9167414d085cd69cb94fL'
p4859
g2
((lp4860
g4
atp4861
Rp4862
sS'0x165d66020fb0ce97f0b0c6566105c2b2c6440ac95L'
p4863
g2
((lp4864
g4
atp4865
Rp4866
sS'0x14b181faf82cecd87868ffae0a733447e40dc26b013a129e1295L'
p4867
g2
((lp4868
g4
atp4869
Rp4870
sS'0x2d201fa869466dfcc4ac5420af1fd9024345410e0ea847fac6L'
p4871
g2
((lp4872
g4
atp4873
Rp4874
sS'0x1b7e9bc8a826ca32322b3fcbf8fb1ec40a417dd52786c8c430ef3fc6bL'
p4875
g2
((lp4876
g4
atp4877
Rp4878
sS'0xb4c832e622fecd70330984fd4e6f84a9356cfc67561bL'
p4879
g2
((lp4880
g4
atp4881
Rp4882
sS'0xfac0ff43561f89c3cbc55ace7dd5c8ffda5f0bc5941ef3f2695dc33L'
p4883
g2
((lp4884
g4
atp4885
Rp4886
sS'0x3a60a76cf63bc650f35696ce797143b95796e7c12b1L'
p4887
g2
((lp4888
g4
atp4889
Rp4890
sS'0x15da74df5b47d0b27b60908cfbf03e9577a3743d66c9ef700cL'
p4891
g2
((lp4892
g4
atp4893
Rp4894
sS'0x366dbfeab9e39afd578189b9e3712628c81459082L'
p4895
g2
((lp4896
g4
atp4897
Rp4898
sS'0x138f711020f9ae7c64ea038120c0c621061d5a27a89ed5a55d5389604c4f7L'
p4899
g2
((lp4900
g4
atp4901
Rp4902
sS'0x363fbe2f2fbea9b9c04bd5eab1242890cf7780484065345f389eL'
p4903
g2
((lp4904
g4
atp4905
Rp4906
sS'0x126120080e97f404af5beba1c6d37af105be634c7aL'
p4907
g2
((lp4908
g4
atp4909
Rp4910
sS'0xff904eec0730827c67d29bccdd69445e910fa9c3d2fL'
p4911
g2
((lp4912
g4
atp4913
Rp4914
sS'0x3e1485f0e8876675228d1cd2bc5df1452785635e89f97d745eceL'
p4915
g2
((lp4916
g4
atp4917
Rp4918
sS'0x26c451ff8645472a74fb2a7498d72d4a71b4966b6L'
p4919
g2
((lp4920
g4
atp4921
Rp4922
sS'0x3757da924de3ed6aafc22a70763f23e9730ffb7506L'
p4923
g2
((lp4924
g4
atp4925
Rp4926
sS'0x70fd74b29412485305c605a6263deed189975dee8c08d161L'
p4927
g2
((lp4928
g4
atp4929
Rp4930
sS'0xcc4ded13f05d1d5ecfd5e0aeebc6675c8af05dd2L'
p4931
g2
((lp4932
g4
atp4933
Rp4934
sS'0x375c83dfd7e04490aedb16d3542bddde674364e5a48669L'
p4935
g2
((lp4936
g4
atp4937
Rp4938
sS'0xe6a763387de4f1158aefb57e18a7c3802a2244602a6L'
p4939
g2
((lp4940
g4
atp4941
Rp4942
sS'0x5bcdf3d90fe76ac3a2fda96f1ed18d56b4cca53b4516fL'
p4943
g2
((lp4944
g4
atp4945
Rp4946
sS'0x542cd020c64e68f0ae17156d6573ea041706ce00348707fa3c6L'
p4947
g2
((lp4948
g4
atp4949
Rp4950
sS'0x17e396912cce245a2fb9f67d290a6ab03e4339b0bddL'
p4951
g2
((lp4952
g4
atp4953
Rp4954
sS'0x176bff4df1c0549b38140038ad0266da5aa9cd8311baad3262ae84aL'
p4955
g2
((lp4956
g4
atp4957
Rp4958
sS'0x911f8d81476deed7ffe33f23efbc4227e8ef8b78dae15aL'
p4959
g2
((lp4960
g4
atp4961
Rp4962
sS'0x1c02646adbf1e545899557d831f570474c35fd6e607ca84ef13ed2328aL'
p4963
g2
((lp4964
g4
atp4965
Rp4966
sS'0xaa6437693d3a12d751fb6a82612ac0bf295a3fd4ab52481bb13a377a753L'
p4967
g2
((lp4968
g4
atp4969
Rp4970
sS'0x9d6198507447e4e92ab6a44ed1e4e791200f9db7f604fbL'
p4971
g2
((lp4972
g4
atp4973
Rp4974
sS'0x10991f0feaa24ef9c8b27710c5d82a7571b3c95b9f9be834d6d9bbf1aL'
p4975
g2
((lp4976
g4
atp4977
Rp4978
sS'0x19964fbc829627d0359a36222550393c6c79be3b8d343b7L'
p4979
g2
((lp4980
g4
atp4981
Rp4982
sS'0xd39d19b3e151049fbbb71ae9f8d811d3d723b7beda0a90ec6802L'
p4983
g2
((lp4984
g4
atp4985
Rp4986
sS'0x17835437150a1c75f668eb12d582b88ae62358055cd13L'
p4987
g2
((lp4988
g4
atp4989
Rp4990
sS'0x601729a7b9c331bb4f114187a761c3113dd4c4dd90a3L'
p4991
g2
((lp4992
g4
atp4993
Rp4994
sS'0x170c80dbe16f314cee75363f134e6e4831e26d960f9489L'
p4995
g2
((lp4996
g4
atp4997
Rp4998
sS'0x5b9ff96ec2f104e3ca12b0391fb6673c76b93e42069ab1735L'
p4999
g2
((lp5000
g4
atp5001
Rp5002
sS'0x147e782c3e1cffd05e9a111269f095c08a034f307097fcL'
p5003
g2
((lp5004
g4
atp5005
Rp5006
sS'0x15b58c7ade74ad090fc9f319d83a725841bf47f932f168451caa50774L'
p5007
g2
((lp5008
g4
atp5009
Rp5010
sS'0x6de7172e062eabfe001688daf560e2eb84a0afbdc97f2950eb85b0123eL'
p5011
g2
((lp5012
g4
atp5013
Rp5014
sS'0x166258b7b46746ae15f8cea9975b1ada1fb31be698d5024cd34fb83fdL'
p5015
g2
((lp5016
g4
atp5017
Rp5018
sS'0x427d5cb08f0188f2e354dc5bd34c9bb3847b35cb6b83ec7dL'
p5019
g2
((lp5020
g4
atp5021
Rp5022
sS'0xb1b0a1f9a9295b35ffcd5611e3f0fdbd4920936ddL'
p5023
g2
((lp5024
g4
atp5025
Rp5026
sS'0xcc9113622ea69c9e799d6d18595021915c45ad6f6cL'
p5027
g2
((lp5028
g4
atp5029
Rp5030
sS'0x832b34513658fdf2394db6d43a3fdc14758508f67e3L'
p5031
g2
((lp5032
g4
atp5033
Rp5034
sS'0x19e1f078ba49dac2fe454fe08fd95b78bc769d934257229L'
p5035
g2
((lp5036
g4
atp5037
Rp5038
sS'0x27cb486307d40be00c25dcfe8aba7cb25276af245f2c4dffef6f3bd2L'
p5039
g2
((lp5040
g4
atp5041
Rp5042
sS'0x2d4cf13e123c7c1a163b1745118850703fea48b5af1L'
p5043
g2
((lp5044
g4
atp5045
Rp5046
sS'0x1c5094f045f9d0eef521eba3088b363da2cb1b9ad4cc52L'
p5047
g2
((lp5048
g4
atp5049
Rp5050
sS'0xc361f051d21a1551c53959ed076544455798d17bf7a057771f6864887L'
p5051
g2
((lp5052
g4
atp5053
Rp5054
sS'0x210cbdccc38e6a88ba3f3a70e1eae77bb7ce1288420L'
p5055
g2
((lp5056
g4
atp5057
Rp5058
sS'0x51d8a7bccc64aa3a48c931d570b5f8a5d85d053e0166c2f2e5a9L'
p5059
g2
((lp5060
g4
atp5061
Rp5062
sS'0xbd1c3e1219e897acb36d0c10151316a353c7b6d3a2c3a12640c258dL'
p5063
g2
((lp5064
g4
atp5065
Rp5066
sS'0x52b7a8623b9711b232ecc059e466f5d3f8d753a2f4ac30e04L'
p5067
g2
((lp5068
g4
atp5069
Rp5070
sS'0x1882aed481d0524f9f5a55f58b602757ba9ab837b46f6e51dL'
p5071
g2
((lp5072
g4
atp5073
Rp5074
sS'0x89b748522a626c54fecb4114c00b104beffee61454c6c6L'
p5075
g2
((lp5076
g4
atp5077
Rp5078
sS'0xd2eec34abcf5d3d13486716d812a5252aa74af3fdcL'
p5079
g2
((lp5080
g4
atp5081
Rp5082
sS'0x10e816d4ddfea364dd84645b8c4974c5db815016dL'
p5083
g2
((lp5084
g4
atp5085
Rp5086
sS'0x29ec480b9ee5b5cef158ff4dd75be5f0b0c46e3a2fd32d48063074L'
p5087
g2
((lp5088
g4
atp5089
Rp5090
sS'0x8e0b9f374ea7532d835923005dd66ecdaa4bb1f61c7c9a43712bL'
p5091
g2
((lp5092
g4
atp5093
Rp5094
sS'0x7ceaa6f50957184f7662d6520e95e9ef0039224571b36142f39e00L'
p5095
g2
((lp5096
g4
atp5097
Rp5098
sS'0xc9751e7557a17c1ede6f6ed61a6285be12537d40963b543f541ab3ce1L'
p5099
g2
((lp5100
g4
atp5101
Rp5102
sS'0x379f9ac7d323d0fe5664d6e82c933253ef3d3b03ad9L'
p5103
g2
((lp5104
g4
atp5105
Rp5106
sS'0x1abd84d2fd7f55d548b90e552154e3cee7e34c2bc472L'
p5107
g2
((lp5108
g4
atp5109
Rp5110
sS'0x8f7f253f9ab37a88edcaf2c8b3e82ee4d5506007ece9899L'
p5111
g2
((lp5112
g4
atp5113
Rp5114
sS'0x8f331642beb4fe4e291e4bac819b6ac4e8cf9e7ae9a70521f1L'
p5115
g2
((lp5116
g4
atp5117
Rp5118
sS'0x118445ca5f83f7751db0173ac70360e800d8603549c1b95eL'
p5119
g2
((lp5120
g4
atp5121
Rp5122
sS'0x34fa2009acdf6576e257fd57995ae98b9266edf7ab3295L'
p5123
g2
((lp5124
g4
atp5125
Rp5126
sS'0x502c73025e0eb7e2e34c7fe6b67ec2e8a7a00078L'
p5127
g2
((lp5128
g4
atp5129
Rp5130
sS'0xd9e12173b1abec094a0802a0cd733d66e61eb7fd0cb0L'
p5131
g2
((lp5132
g4
atp5133
Rp5134
sS'0xd930c45b47e96b1c3f42393ff1d61b5a4d609725c3a9L'
p5135
g2
((lp5136
g4
atp5137
Rp5138
sS'0xb0e1a36fba822f73e7b9dcac1b867e8d2c7e1623b5e2f96edbffL'
p5139
g2
((lp5140
g4
atp5141
Rp5142
sS'0x56e57a93756acae218e10da8754067d8ae4e8e0c1e09beb8a7a6008L'
p5143
g2
((lp5144
g4
atp5145
Rp5146
sS'0x64d0d9d62948e4e296edc4fdcc37c57661ba0c2ab152L'
p5147
g2
((lp5148
g4
atp5149
Rp5150
sS'0x31cb5d2fbfe6eced63ea3e97b7648608bb61ae291603e17ab64cf4f3cL'
p5151
g2
((lp5152
g4
atp5153
Rp5154
sS'0x22eb8b5782cc42520e4f28651e07ccbe68603ea36d283cdeaee3aL'
p5155
g2
((lp5156
g4
atp5157
Rp5158
sS'0x26a7d0ff7e07fe42ce1bb65f8c0c58e5f060b1f3630082cL'
p5159
g2
((lp5160
g4
atp5161
Rp5162
sS'0x1a26939c29977416920c44cf98223b9c1f8395e77dc510d997e40cd31a7ce2L'
p5163
g2
((lp5164
g4
atp5165
Rp5166
sS'0x5c89e277e85cba8dc5d5230a074331a0a830e3cf9a3bf3645L'
p5167
g2
((lp5168
g4
atp5169
Rp5170
sS'0x7dd625547c3018efefdd3e7b935835417fa7a799ecbL'
p5171
g2
((lp5172
g4
atp5173
Rp5174
sS'0x25e2d8bbab058a9d80b994e9f8de1f236060e524220f1b5822eL'
p5175
g2
((lp5176
g4
atp5177
Rp5178
sS'0x9a7b84945ef6bde307fa22cfef0e7121cbe3a59de0f18e68d5a681L'
p5179
g2
((lp5180
g4
atp5181
Rp5182
sS'0xaa9925af70369d1dbe51000a6e5087bafe5ba61068f40243a9a2bcL'
p5183
g2
((lp5184
g4
atp5185
Rp5186
sS'0x48488559ef18c5ef56b4fbc2239cc3ef0d808fdd27fbcc9dL'
p5187
g2
((lp5188
g4
atp5189
Rp5190
sS'0x7165843a56d57272011ba5aff3ceb913fb18ad94aa5b393L'
p5191
g2
((lp5192
g4
atp5193
Rp5194
sS'0x2e6ffec5ea824882470c7424ffab65a8f1fa7f60014ec2057ccce6L'
p5195
g2
((lp5196
g4
atp5197
Rp5198
sS'0x2a15cab25a576505a9b1d1ad06c1c59b95bbf5d50c9L'
p5199
g2
((lp5200
g4
atp5201
Rp5202
sS'0x1920bcc9a5f207308fafb2ab3b1263bc4c710f59d6adL'
p5203
g2
((lp5204
g4
atp5205
Rp5206
sS'0x112b086a95c17d673a37c6f9f570ddb0416e9f69L'
p5207
g2
((lp5208
g4
atp5209
Rp5210
sS'0x3926b56554c9c2d2d01ea144bb4617c008064a8dea2ffdc8deL'
p5211
g2
((lp5212
g4
atp5213
Rp5214
sS'0x20566b24b45fa41581a0e960b0e82ede5457dc923L'
p5215
g2
((lp5216
g4
atp5217
Rp5218
sS'0x63c6fec14524d264c9d7ef4a10ef7ba9c72eb97a0L'
p5219
g2
((lp5220
g4
atp5221
Rp5222
sS'0x9d2220d91b4bd5a2b3439047c261827e1c4f835740L'
p5223
g2
((lp5224
g4
atp5225
Rp5226
sS'0x3608975e135fce3a1deb31ed61e45bf43aebfd53c9beL'
p5227
g2
((lp5228
g4
atp5229
Rp5230
sS'0x5508f9725d020f186d64dd31fabf3f6e1db46daaec0c5fL'
p5231
g2
((lp5232
g4
atp5233
Rp5234
sS'0x1085c9cc041147b1de55ed0d82a64693fe3f692d629d6965f80L'
p5235
g2
((lp5236
g4
atp5237
Rp5238
sS'0xa737b896fdea10b5e5d2a144aac4b712548e71e81b24fcL'
p5239
g2
((lp5240
g4
atp5241
Rp5242
sS'0x3dd1fd09e37a40bee01a7dcf33758aed2f890fd629340be7952204f15c4L'
p5243
g2
((lp5244
g4
atp5245
Rp5246
sS'0xf4e53f21d75a92f9ea009831f1f90cb138dbd6a1ed25c09L'
p5247
g2
((lp5248
g4
atp5249
Rp5250
sS'0x271159cd1d23c4bd2b36ee7c3777de098daddbf89c22dL'
p5251
g2
((lp5252
g4
atp5253
Rp5254
sS'0xb7ff5c61760e6c0a6d01d8ec4ce22eedac6df7d714L'
p5255
g2
((lp5256
g4
atp5257
Rp5258
sS'0xc4ae1bda37a514b6c21b58ba34ba8fcf40761e059009de7fa4L'
p5259
g2
((lp5260
g4
atp5261
Rp5262
sS'0x12dccd5bfdeb3af0dfa0085684f238f89df279f641076710f87L'
p5263
g2
((lp5264
g4
atp5265
Rp5266
sS'0x3d5601adcc2dbef940dae27ed4adda2ef69e1d84574472a35L'
p5267
g2
((lp5268
g4
atp5269
Rp5270
sS'0x154308cba6514972038b5e7a01b3f8d59ffcf5bfa400489eL'
p5271
g2
((lp5272
g4
atp5273
Rp5274
sS'0x29f6c1fac11f96e213fbf32878645319a78e98e9bL'
p5275
g2
((lp5276
g4
atp5277
Rp5278
sS'0xd223e89eb1ad9577cf20557d1f54fa37e4c2982e79be4dL'
p5279
g2
((lp5280
g4
atp5281
Rp5282
sS'0x2a0c5773af6ab3eb4eb0972bfe6088366dd5b2003eabd0dL'
p5283
g2
((lp5284
g4
atp5285
Rp5286
sS'0xab826de6b64724be051d5a1939dc366651b5eeb9L'
p5287
g2
((lp5288
g4
atp5289
Rp5290
sS'0x1b392fe285c1744e7631d3edaa64001c9be319b16191b8b1feee458732L'
p5291
g2
((lp5292
g4
atp5293
Rp5294
sS'0x1f06d90990915c04ab8c6d8b6c6e625168afadbbd7L'
p5295
g2
((lp5296
g4
atp5297
Rp5298
sS'0x6d4f9d7ad2fc98832bc1cb1e16043cc4fc804b3e9bac95d6ecc00d70L'
p5299
g2
((lp5300
g4
atp5301
Rp5302
sS'0xb3585b341e80533ed1b58defda503ae431fd2235eL'
p5303
g2
((lp5304
g4
atp5305
Rp5306
sS'0x5a5145773047eb3c478e2da8e1a4510ed954e4350c12a9f7c21875cL'
p5307
g2
((lp5308
g4
atp5309
Rp5310
sS'0x66b4629f7fba7a3b8ce3cf9b0f59e1d66c1eb14611542L'
p5311
g2
((lp5312
g4
atp5313
Rp5314
sS'0x6bc584d28324e39e183636a75ce7cc1f856f40993b17ee21aL'
p5315
g2
((lp5316
g4
atp5317
Rp5318
sS'0xaea9eac7f864e36f25e8ade8893b81dcf2641ecd7b6b81f0c06L'
p5319
g2
((lp5320
g4
atp5321
Rp5322
sS'0x91629fd78c606c99540acd7acfe2ff47cd539ebbcL'
p5323
g2
((lp5324
g4
atp5325
Rp5326
sS'0x82b8f9c272a259d32055a8e2f472d6ae184c50eea3379cf1L'
p5327
g2
((lp5328
g4
atp5329
Rp5330
sS'0xfaa33f5f11392e5d10ee1ba2a0ae67b9af46af1bL'
p5331
g2
((lp5332
g4
atp5333
Rp5334
sS'0x1dc0d2c88c0a298b2cca042e74dd5ebf51cb224b210L'
p5335
g2
((lp5336
g4
atp5337
Rp5338
sS'0x6ba35c8851d63183ffdb72c9f666898527081b3a64f9628acL'
p5339
g2
((lp5340
g4
atp5341
Rp5342
sS'0x23d9afb178376ce54150690fee4cf7e2f29440a60bL'
p5343
g2
((lp5344
g4
atp5345
Rp5346
sS'0xaa20efbf1857fb260e22b99ae4ae018ffcc91759f40c8L'
p5347
g2
((lp5348
g4
atp5349
Rp5350
sS'0x817a34efdcaf9067e05680d2389dc1c8ea36b621eceL'
p5351
g2
((lp5352
g4
atp5353
Rp5354
sS'0x81066eb9a998baa6fdfc6f9880001c31dfe70a3bb822a7b42a51c7L'
p5355
g2
((lp5356
g4
atp5357
Rp5358
sS'0x11cb7f22b423ee68c0fdfc9e97f71d0a04ae7bfe6530fbec66e1430f2L'
p5359
g2
((lp5360
g4
atp5361
Rp5362
sS'0xba3d91d2b9966f818ccfead3ea56eca1abdea1faf9ab2b6c6294L'
p5363
g2
((lp5364
g4
atp5365
Rp5366
sS'0xd8d8ce211afcf1e8feddb7c16389f73eccac1191723ce654d053fL'
p5367
g2
((lp5368
g4
atp5369
Rp5370
sS'0x5e64060ed4daa74ce3a25e2433e4732ff68dce6cde7a6c47832fe7bf0L'
p5371
g2
((lp5372
g4
atp5373
Rp5374
sS'0xdca7a214d3f95143fbbcd3602076b611f164a5661e8e1ef7954L'
p5375
g2
((lp5376
g4
atp5377
Rp5378
sS'0x3cdc7f5d3e53b73e08d5cc6bf2b4bdf5c3a371de3557L'
p5379
g2
((lp5380
g4
atp5381
Rp5382
sS'0x1fd49a8b3c85b9038a1fc9658c6e1a72921f50c6c3f1140fbcdeL'
p5383
g2
((lp5384
g4
atp5385
Rp5386
sS'0x1a7f8fc32c60508fc1f94756031ceddfad47b998dL'
p5387
g2
((lp5388
g4
atp5389
Rp5390
sS'0xa17d47c4c0d5cf514cd22c380769a914252b92c4ca40bbcL'
p5391
g2
((lp5392
g4
atp5393
Rp5394
sS'0x46beb9939c23a34f6ef91288bec8838a6c789e5f8011dfffbea3bf9L'
p5395
g2
((lp5396
g4
atp5397
Rp5398
sS'0x4a064ff980cb4caefaf1273e754eb2b920588438d153e9d2b34dcL'
p5399
g2
((lp5400
g4
atp5401
Rp5402
sS'0x10784a5e77b4e1c568ce8265051916fcaa32b22c74abfb522e22L'
p5403
g2
((lp5404
g4
atp5405
Rp5406
sS'0x329f1e2cf48b1fd52abd9e7139414319cb7f0f4badL'
p5407
g2
((lp5408
g4
atp5409
Rp5410
sS'0x435a64dbda52a16418d752176f4f66fc3102e9cc9cc92819bcL'
p5411
g2
((lp5412
g4
atp5413
Rp5414
sS'0x193ce6c00a5146855f0580f28fb2eabf0928ddc0cc7ba8b0c986fL'
p5415
g2
((lp5416
g4
atp5417
Rp5418
sS'0x9660a553be3845cababa53cfb5d1c8a73e73f2f48c96b1aL'
p5419
g2
((lp5420
g4
atp5421
Rp5422
sS'0x11a8b51be133cd9bd962dc1bdeb6ed38e35b3e11340190L'
p5423
g2
((lp5424
g4
atp5425
Rp5426
sS'0x4ec0414b35b48f650fcb20bfeedcdbeb0dfb27ba2934L'
p5427
g2
((lp5428
g4
atp5429
Rp5430
sS'0x3d866a6356c194d11273030889805aeb7916ee67dL'
p5431
g2
((lp5432
g4
atp5433
Rp5434
sS'0xda8935d04a2d3fa2446e46c3ad7f51922d6edb79d4baL'
p5435
g2
((lp5436
g4
atp5437
Rp5438
sS'0x5fb288f763029c331d7fd27d3b4943ad361fbda677025fL'
p5439
g2
((lp5440
g4
atp5441
Rp5442
sS'0x15a120087eb658d73d5761c514d21ba88354cc4af5aaL'
p5443
g2
((lp5444
g4
atp5445
Rp5446
sS'0x96a58566bebb3a3eb933fb3f19ff50583d958ae8L'
p5447
g2
((lp5448
g4
atp5449
Rp5450
sS'0x2f949451099fa1b131a88ca9755a0c62598d2fe17d4b0b1afL'
p5451
g2
((lp5452
g4
atp5453
Rp5454
sS'0x2b0224e88ddd93505192d0fc6345910f4b904d739a99d150090bf6L'
p5455
g2
((lp5456
g4
atp5457
Rp5458
sS'0x87ecf3e062b4d488077962cccd7d3a30f9e5db3dcffL'
p5459
g2
((lp5460
g4
atp5461
Rp5462
sS'0x1472008f40acad1bbde3f68f47b6d9a93f0a5aa57aa935560L'
p5463
g2
((lp5464
g4
atp5465
Rp5466
sS'0xa9d2c4e3d1d5e5dd7950afc99d4b0a55f20aa69e2L'
p5467
g2
((lp5468
g4
atp5469
Rp5470
sS'0x65b0c79edd48c40f0ea39c9adb267bff7d67fd0535587L'
p5471
g2
((lp5472
g4
atp5473
Rp5474
sS'0x16e3e39c6f0b87445abf1f7a4b5d8359b00f824420e44141d4b60141L'
p5475
g2
((lp5476
g4
atp5477
Rp5478
sS'0x3f56d9c04b0c4dfdc54e12cb9aecb1b3951ea81066L'
p5479
g2
((lp5480
g4
atp5481
Rp5482
sS'0x12222d5daa8d9c91c63b712ac1f106776333d358eb69L'
p5483
g2
((lp5484
g4
atp5485
Rp5486
sS'0x3fdd58308714aff667a5f1cc7907ee03b3c0072820e53506L'
p5487
g2
((lp5488
g4
atp5489
Rp5490
sS'0x1cb5374ada8159ca372bf463a9fa4004983bf9868a9L'
p5491
g2
((lp5492
g4
atp5493
Rp5494
sS'0x193fec24251677c98d8161f36d5aef642cbb3b49705528e2L'
p5495
g2
((lp5496
g4
atp5497
Rp5498
sS'0x93a4a2a83a66ee9f7427564138ac48441682acce8b12a23aef1d48bab6L'
p5499
g2
((lp5500
g4
atp5501
Rp5502
sS'0x3ba087e4c44c813502b5ae20bfce88d672d65ea06L'
p5503
g2
((lp5504
g4
atp5505
Rp5506
sS'0x153f5a36603e0817422771528e718d7641ee9b8be1bc32e06b27f18a27dL'
p5507
g2
((lp5508
g4
atp5509
Rp5510
sS'0xf76cfa1dc096f1c981e26b9de696c474782de28b6966a6L'
p5511
g2
((lp5512
g4
atp5513
Rp5514
sS'0x26b55d43592cabf13d6d6f657c9660475f93928bf74d342dc25c38bbe2L'
p5515
g2
((lp5516
g4
atp5517
Rp5518
sS'0x3475dd34f9d3923d334a38971b78e956f981c128682facL'
p5519
g2
((lp5520
g4
atp5521
Rp5522
sS'0xccba197aee10c89cbf2a6d2a4b786ae2eb5e2c5f9d42f1143eafbL'
p5523
g2
((lp5524
g4
atp5525
Rp5526
sS'0x12992537c3dbc9a6156cd2a61007bce7c99a8949d7L'
p5527
g2
((lp5528
g4
atp5529
Rp5530
sS'0x5395aa6bc75fd8920f26f8bddfcaf6bde128b4c94fb1feca71c0534L'
p5531
g2
((lp5532
g4
atp5533
Rp5534
sS'0x8cb3a35508a91b3e14121f73959330a4bc78bfa449bdd46cdf8c12L'
p5535
g2
((lp5536
g4
atp5537
Rp5538
sS'0x231c5cd5aa835bf6fa7a45b670bdada5e794eb18071addb99c41L'
p5539
g2
((lp5540
g4
atp5541
Rp5542
sS'0x32e1835df2912c69fea23f50949ea075262697f875L'
p5543
g2
((lp5544
g4
atp5545
Rp5546
sS'0x188759c620b61b344643d4fc57f3d893938b2658f414f9d082167a6a1d1520L'
p5547
g2
((lp5548
g4
atp5549
Rp5550
sS'0x7708e830c71674276fe232d27d83b098b1b4c6c722b8a3L'
p5551
g2
((lp5552
g4
atp5553
Rp5554
sS'0x4da5ee8b5f9ff7cd430f7e0304bbbfc10989644f7cL'
p5555
g2
((lp5556
g4
atp5557
Rp5558
sS'0x8b37998065c89ade93a9c7aa3e30cb3f3c14b8a50ed5L'
p5559
g2
((lp5560
g4
atp5561
Rp5562
sS'0xa9c3383bed700fe17610cafc9ac5cd1c9547a9f7a3f1aaada53L'
p5563
g2
((lp5564
g4
atp5565
Rp5566
sS'0x3cc10e061ae8ffeace52f68691b19aa4728bf54845f37fL'
p5567
g2
((lp5568
g4
atp5569
Rp5570
sS'0x10bd9b1526179c26c2492e1310413448f64225f0b747abfe4fL'
p5571
g2
((lp5572
g4
atp5573
Rp5574
sS'0xdd9ec934412406f0cc3249dea5984a1d92bfcd5f1L'
p5575
g2
((lp5576
g4
atp5577
Rp5578
sS'0x1204608eac7ea8b0f3e44421aefc549ac986c2ca30f0dL'
p5579
g2
((lp5580
g4
atp5581
Rp5582
sS'0x8dde8745a4d2b0cc77be3406edc78fd6f4503f0c64c4fL'
p5583
g2
((lp5584
g4
atp5585
Rp5586
sS'0x4229f720a74b1d34f49f4af1b167413901c417eaf5a69L'
p5587
g2
((lp5588
g4
atp5589
Rp5590
sS'0x1de1e7961d2fa57926b714db966bb2ea98689273296828afcc7f4f278L'
p5591
g2
((lp5592
g4
atp5593
Rp5594
sS'0x12f49268d3944a1415ef4a495ae2bd2832b897a1946b6496b12a56L'
p5595
g2
((lp5596
g4
atp5597
Rp5598
sS'0xef4aeaab0c7a68781c55d433d75deb85c7ae208ef3ae0622548L'
p5599
g2
((lp5600
g4
atp5601
Rp5602
sS'0x5885faff8e0c4fde9c5f645a936427fa07bfca88084764b338843067L'
p5603
g2
((lp5604
g4
atp5605
Rp5606
sS'0x15032357583649ba1b3b8d91e9f8420037589567dfeb30ca7219a06L'
p5607
g2
((lp5608
g4
atp5609
Rp5610
sS'0xe560c4d849f31184c737bf63cc3dc2756727bec7031413d78378eL'
p5611
g2
((lp5612
g4
atp5613
Rp5614
sS'0x72e00e29302dd389d8cb5636d731a3d0e47546b1fe93b3L'
p5615
g2
((lp5616
g4
atp5617
Rp5618
sS'0x20bfdc057e93c489de24ee82e8078bc7bc496017169d599ef0a9L'
p5619
g2
((lp5620
g4
atp5621
Rp5622
sS'0x60bfb425c4c802abed74274a88291c8cc8d2e97dffL'
p5623
g2
((lp5624
g4
atp5625
Rp5626
sS'0x1295097a909b5385e16104f80c24c9c4ba2db59203a3L'
p5627
g2
((lp5628
g4
atp5629
Rp5630
sS'0x27977cc4e1d97c2985b9871a29cb8d32e65afc3ae4aL'
p5631
g2
((lp5632
g4
atp5633
Rp5634
sS'0x519c02b8f7a3a13903fb396ddd21c9aa175fb37f5e241L'
p5635
g2
((lp5636
g4
atp5637
Rp5638
sS'0xb727d219435a69ef54260ed62ec58ba7b940f86da00L'
p5639
g2
((lp5640
g4
atp5641
Rp5642
sS'0xca0f2e938fd1c93353d3dd949a51a34369a30df54f8cba19cbL'
p5643
g2
((lp5644
g4
atp5645
Rp5646
sS'0x4c4717f81196924f685919ee3098e8c53f86138f9bL'
p5647
g2
((lp5648
g4
atp5649
Rp5650
sS'0x23ec819b80b9d815d1023d351b5a90ca0daa94e8ca38463cdL'
p5651
g2
((lp5652
g4
atp5653
Rp5654
sS'0xed6f239f7e9d5e7af99178c86fc5d19a4038e7c28bcdda0ded6e5a3L'
p5655
g2
((lp5656
g4
atp5657
Rp5658
sS'0x9d2d96565dc06a866465216373028dc31bfc11f1L'
p5659
g2
((lp5660
g4
atp5661
Rp5662
sS'0xee2ee07a8221a770bc86a8fd5c9a4e9647491d587L'
p5663
g2
((lp5664
g4
atp5665
Rp5666
sS'0x21888987188f8601f9b12ab5421ce30246fede47c983c5f0abL'
p5667
g2
((lp5668
g4
atp5669
Rp5670
sS'0x88511d44d744b700a6c43753c9f32dbc4d4fc2c60L'
p5671
g2
((lp5672
g4
atp5673
Rp5674
sS'0x305c0a17e6e9768e053280f6d4c70cdf777cb0cfe06dL'
p5675
g2
((lp5676
g4
atp5677
Rp5678
sS'0x6fa6d9448fd9603ed6b9718266891745e0ece4ec6f0485L'
p5679
g2
((lp5680
g4
atp5681
Rp5682
sS'0x5712162379b7a934529e3f883b74f95a3252a284447451a8f731dbb78aL'
p5683
g2
((lp5684
g4
atp5685
Rp5686
sS'0x474f881ff003fd9926e894d02176b13f2cd474d65c0b68cb5b9f9518c3bL'
p5687
g2
((lp5688
g4
atp5689
Rp5690
sS'0x25c5f5b6006e4745ca8ec9cf2e406061efd315caf2c5705b58f643833aL'
p5691
g2
((lp5692
g4
atp5693
Rp5694
sS'0x256684235f945f630931f0a9782b70f71dd164af491b5ba00L'
p5695
g2
((lp5696
g4
atp5697
Rp5698
sS'0x56f8d9c424fb3534d1d8d30683d2ead71b78bc3dc2cfd14c233L'
p5699
g2
((lp5700
g4
atp5701
Rp5702
sS'0x20627742ec90d39b15530fe223d58fd7bb37541d8L'
p5703
g2
((lp5704
g4
atp5705
Rp5706
sS'0x2c2a6fb7f668bddf5f43e2ec705d511ab4be387cb96a3c6c005cL'
p5707
g2
((lp5708
g4
atp5709
Rp5710
sS'0x13a74b0c6a0e174d9259cdeaef33c81f5eefefe3b7c3e094dbfeL'
p5711
g2
((lp5712
g4
atp5713
Rp5714
sS'0x623f94107bbb690c69359dfc47898e34931e287be4038e5a3d7fL'
p5715
g2
((lp5716
g4
atp5717
Rp5718
sS'0x95a5003a43f6d2d979302ed4551d5150ec86e2cefb87823531L'
p5719
g2
((lp5720
g4
atp5721
Rp5722
sS'0xc7bceda2fcf9e9bf504c50394567493ddb52c439693a60L'
p5723
g2
((lp5724
g4
atp5725
Rp5726
sS'0x32153726aeafeb766e1f5a6313f951899ce240ea8eb7ecL'
p5727
g2
((lp5728
g4
atp5729
Rp5730
sS'0x275a821a29d57cd33aac9511b723621f92d17a03735b38c8abf9L'
p5731
g2
((lp5732
g4
atp5733
Rp5734
sS'0x3c356bdf7d8d7d8b1c2b1fa1ef549b0c18b6dcf6251215fdL'
p5735
g2
((lp5736
g4
atp5737
Rp5738
sS'0x2d67c9db5eb7e9305d9443a79a78281049865cf7827L'
p5739
g2
((lp5740
g4
atp5741
Rp5742
sS'0xdf69e9b5c395eed5d986f8d361bdcbf9ee9977ddf2L'
p5743
g2
((lp5744
g4
atp5745
Rp5746
sS'0x157daadb2cde9e4804dc76dcbad177f2036b7f2effL'
p5747
g2
((lp5748
g4
atp5749
Rp5750
sS'0x16fac0ba501d7195b74c5a80189d4baa6230943aab5c5fL'
p5751
g2
((lp5752
g4
atp5753
Rp5754
sS'0x19a8ceb47da33ae2d703758da3d5f6838bbd3a2042L'
p5755
g2
((lp5756
g4
atp5757
Rp5758
sS'0xa0277838554361aef4e277b81c2c34e64128282e20149425846df541fL'
p5759
g2
((lp5760
g4
atp5761
Rp5762
sS'0xe51fed70e910011998ea575b3ae0b2f7844d780202e8b96131e9eL'
p5763
g2
((lp5764
g4
atp5765
Rp5766
sS'0x1b4734a4ac725a0971bcdd78f4a105958d93384f3dL'
p5767
g2
((lp5768
g4
atp5769
Rp5770
sS'0xd119994e97fc655844864e3701afbf9d21a926756f9L'
p5771
g2
((lp5772
g4
atp5773
Rp5774
sS'0x1f166d51af0fd9700335a60795fdd743d91dac7f16f35L'
p5775
g2
((lp5776
g4
atp5777
Rp5778
sS'0xd69debe8c4fe1743121c656e0e138b47b25e281c3f5cdc29136f243bdeL'
p5779
g2
((lp5780
g4
atp5781
Rp5782
sS'0x4a6e51c8d93ef75f09bb13b83edf03d316b71d082eL'
p5783
g2
((lp5784
g4
atp5785
Rp5786
sS'0x1be1c48846e29cff354c8f294eb0f88fc5cf35a39a15c13809ceL'
p5787
g2
((lp5788
g4
atp5789
Rp5790
sS'0x56e2e3cd602d5d213618c832311480c6ff048c7275d5L'
p5791
g2
((lp5792
g4
atp5793
Rp5794
sS'0x3d7b6949d86e8005c032e30fe7c332a2649a9ceea1d63eL'
p5795
g2
((lp5796
g4
atp5797
Rp5798
sS'0xf7aaa41f8d617eebf42d2808dd3fee1a6ec1f2a5da884c079dfabL'
p5799
g2
((lp5800
g4
atp5801
Rp5802
sS'0x170f19b31e5f112027019817521b071aadfe99f70bL'
p5803
g2
((lp5804
g4
atp5805
Rp5806
sS'0xeddb3eb76583eb572dee226120e8da81727122f112L'
p5807
g2
((lp5808
g4
atp5809
Rp5810
sS'0x1a98d8b70a9579187ceea07510a12950cec4733f436de42L'
p5811
g2
((lp5812
g4
atp5813
Rp5814
sS'0x17f4cf0849cb27c59bb7b742777847e766110de7667691d06bac839L'
p5815
g2
((lp5816
g4
atp5817
Rp5818
sS'0x32565ba857b70ae739548178de5c5922109056f087cc4L'
p5819
g2
((lp5820
g4
atp5821
Rp5822
sS'0xb695e1523cac7821bc498f549f633d6755b6bc1d2bbcL'
p5823
g2
((lp5824
g4
atp5825
Rp5826
sS'0x199d26d98087bae3269927aa17a7940b2e6d47864b5L'
p5827
g2
((lp5828
g4
atp5829
Rp5830
sS'0x5f7dcfa1b5917533f261d68289b69312bb41dd0e20df0b4b1398L'
p5831
g2
((lp5832
g4
atp5833
Rp5834
sS'0x2153ec1ed0daff4be2fcd99383b1ac580c2dc941fcb9d38c7a5ce9L'
p5835
g2
((lp5836
g4
atp5837
Rp5838
sS'0x3dbdba32dda5ba7d721973c9df4ff3eaf8b6c17741L'
p5839
g2
((lp5840
g4
atp5841
Rp5842
sS'0x1eec1f750c1034d8f99b3d4f5adcdf325c1f3bf4a541ba81d59L'
p5843
g2
((lp5844
g4
atp5845
Rp5846
sS'0x269838b3884c2ceafeaa8faad928ae0d5355fe3432dc442dfe3L'
p5847
g2
((lp5848
g4
atp5849
Rp5850
sS'0x40467ffdd8994218c2fac745823bab840b1ac96a3cf0L'
p5851
g2
((lp5852
g4
atp5853
Rp5854
sS'0x45b121e229a26a4a0d568f0e2f1fd7bed1a0ea19916L'
p5855
g2
((lp5856
g4
atp5857
Rp5858
sS'0x1d5a21dc1a78053b92150a32d701afe1f476d9c6ae9fa5a848d04L'
p5859
g2
((lp5860
g4
atp5861
Rp5862
sS'0x14552672a2b4641d17a2963f9227350e9ee3013c32dL'
p5863
g2
((lp5864
g4
atp5865
Rp5866
sS'0x779756cddf937dd527b2a47e40146b498dc30ef09L'
p5867
g2
((lp5868
g4
atp5869
Rp5870
sS'0x52282779cd1356a9cc7ca852d58018fa656b6cbeb4a173a7eL'
p5871
g2
((lp5872
g4
atp5873
Rp5874
sS'0x5c2c40de64375d1e3e728fd763fca155ad1f67134c13cfc66ce608cL'
p5875
g2
((lp5876
g4
atp5877
Rp5878
sS'0x57d6e1f7d3c0e940c45f504f1e55baa7c059b16b528126baabfL'
p5879
g2
((lp5880
g4
atp5881
Rp5882
sS'0x66f55098c82e070979924e4c725571a3e36be8f127d12faL'
p5883
g2
((lp5884
g4
atp5885
Rp5886
sS'0xc8df0856274e8df1e46c7ff3dc80e79506c02f39099f4a3L'
p5887
g2
((lp5888
g4
atp5889
Rp5890
sS'0xc43438b3db5c28298d87aa91e27a68f6a71a4081396b6d4e7aL'
p5891
g2
((lp5892
g4
atp5893
Rp5894
sS'0xdd61add61c77e7dc4cc87ed529e1e659bc8515430e92L'
p5895
g2
((lp5896
g4
atp5897
Rp5898
sS'0xe0204beee70264cbcfc171776faef294633fdd4eL'
p5899
g2
((lp5900
g4
atp5901
Rp5902
sS'0x383d9e7400718f81bfaca8d2179708d461e355834b7752462f10355L'
p5903
g2
((lp5904
g4
atp5905
Rp5906
sS'0x927549b09f42df57139ec73601ce41f71a4512e70dL'
p5907
g2
((lp5908
g4
atp5909
Rp5910
sS'0x228de35705112468412d54c365e163bbb99ad276287L'
p5911
g2
((lp5912
g4
atp5913
Rp5914
sS'0x3cafad4a1ba974b6211f9d17fac8e333182c5abd3e2e0f97748f16L'
p5915
g2
((lp5916
g4
atp5917
Rp5918
sS'0x3d187109d323b1f3abff493cb9006cdd7d8df83865L'
p5919
g2
((lp5920
g4
atp5921
Rp5922
sS'0x51a1bfb16858b621ae83e6793e5c0a6d31464a5a4858526L'
p5923
g2
((lp5924
g4
atp5925
Rp5926
sS'0x1cf615c5f7444e106dada53474a04d9cb74207f71940L'
p5927
g2
((lp5928
g4
atp5929
Rp5930
sS'0xa2bf3a8d8f3c9d18fa359f88b070ce1fe9c29cf6477ae2b7d0e9L'
p5931
g2
((lp5932
g4
atp5933
Rp5934
sS'0x1cf728dbd1ce439f04d9bd10ccfb1198090d4d237a30854d7004cf1L'
p5935
g2
((lp5936
g4
atp5937
Rp5938
sS'0xb9489d73b5509477757521de05dde706c34d08faaL'
p5939
g2
((lp5940
g4
atp5941
Rp5942
sS'0x4268bb8c269899e4a3e4f4800d2f3baca84dc12842e4b1c861a91L'
p5943
g2
((lp5944
g4
atp5945
Rp5946
sS'0x246f0c12f4675e3f11468b226f10912739d7cf16f219eL'
p5947
g2
((lp5948
g4
atp5949
Rp5950
sS'0x46240418fb4d4fb07839c97276d10640749503d13dbfL'
p5951
g2
((lp5952
g4
atp5953
Rp5954
sS'0x731eb8a0a41bef3f05a063812e0a8d53309cbb1bdeb3c4ae0fe21e324dL'
p5955
g2
((lp5956
g4
atp5957
Rp5958
sS'0x31915d640c38d9dccb27a81406210883f929a3745662b631ef5L'
p5959
g2
((lp5960
g4
atp5961
Rp5962
sS'0x1021e37cc10a57e29e58803d916d1143ffc105316faee938c4fa28db6L'
p5963
g2
((lp5964
g4
atp5965
Rp5966
sS'0x6b09a352d75ad5a9c6fae14521765681936051bac0515c7L'
p5967
g2
((lp5968
g4
atp5969
Rp5970
sS'0x2001a0c8c8cc3276e2784de2b45329fba9b85cd1425L'
p5971
g2
((lp5972
g4
atp5973
Rp5974
sS'0xa334fe215f1b7c2ce196058d36df4a8ea7fed260f33dL'
p5975
g2
((lp5976
g4
atp5977
Rp5978
sS'0x6518622f1316deef56b4b3972c9a7af01da3cc13167e8fe109af8L'
p5979
g2
((lp5980
g4
atp5981
Rp5982
sS'0x87ed7e215b3a91b6aa4423045263ffd9e8e7b389c3b2be399119L'
p5983
g2
((lp5984
g4
atp5985
Rp5986
sS'0x44b88fde667840541b3efcbc39a6d55a018c225f780e85L'
p5987
g2
((lp5988
g4
atp5989
Rp5990
sS'0x1bcafd7f6a01c955f1e897bfb15bac6f4faeeeda7845817cdf737L'
p5991
g2
((lp5992
g4
atp5993
Rp5994
sS'0x2bf49624c47c2f8c1705cc3c915bb8d5e68299ba6L'
p5995
g2
((lp5996
g4
atp5997
Rp5998
sS'0x2a91de3e2bc297a5815284ac5d7284e971542d152L'
p5999
g2
((lp6000
g4
atp6001
Rp6002
sS'0x930d9d205f1371007cf10b6b347b4b6068a65bf8c709e5ddL'
p6003
g2
((lp6004
g4
atp6005
Rp6006
sS'0x3666eb53815a281cf47a7d910d1816ec3467e08d4df2L'
p6007
g2
((lp6008
g4
atp6009
Rp6010
sS'0x342588aea45e16ee3d935aef32471a5140b041f5c3L'
p6011
g2
((lp6012
g4
atp6013
Rp6014
sS'0x4c26356c3233326b97fe832fe8db63244ae70d3b1c055ba8c83L'
p6015
g2
((lp6016
g4
atp6017
Rp6018
sS'0x2de7c2ae5191abe7fec1d3a8864b0fa4a543bed29c79c8L'
p6019
g2
((lp6020
g4
atp6021
Rp6022
sS'0xa67fa40259657ca9581bdaac03813e7a69172e4a72dc4b19d5L'
p6023
g2
((lp6024
g4
atp6025
Rp6026
sS'0x24a25d0f5764e3ff5541f689d9ffff52c687d4711fcc1099ff80123303L'
p6027
g2
((lp6028
g4
atp6029
Rp6030
sS'0x24e0a538ea77b31bee747e77faead33676162d2ef9dfba5dc10L'
p6031
g2
((lp6032
g4
atp6033
Rp6034
sS'0x2a9a74a9385e192a3f67b307ba0b9dac9b2e7284c4526686b4L'
p6035
g2
((lp6036
g4
atp6037
Rp6038
sS'0x121e87c9791e95b93ab88ca2c0928398596517716650dd3a4a08c77L'
p6039
g2
((lp6040
g4
atp6041
Rp6042
sS'0x2cde0c001257443bc2b778aeab92a55b7fdac112509da69fe90dL'
p6043
g2
((lp6044
g4
atp6045
Rp6046
sS'0x120ea2dad630843842802bf36d819d1c44a08328e10L'
p6047
g2
((lp6048
g4
atp6049
Rp6050
sS'0x2a64b9a93d091ab7e874b9374ba32960cb049904c044b64129026af05L'
p6051
g2
((lp6052
g4
atp6053
Rp6054
sS'0x5e2e70423d4abc2f5d0c924c9b39d25f9147018c0c39fL'
p6055
g2
((lp6056
g4
atp6057
Rp6058
sS'0x2f0cfba5f79ec09d7b011effe5e848c0092ab863db9ffc0a5a045L'
p6059
g2
((lp6060
g4
atp6061
Rp6062
sS'0xb60943fca3562f6903fd3621e0e85533c40f2de8L'
p6063
g2
((lp6064
g4
atp6065
Rp6066
sS'0x50de3637d6710f60c0c1ea93a50c85174393e3891240eL'
p6067
g2
((lp6068
g4
atp6069
Rp6070
sS'0x9aeb93619d9fd10d06b0395ac1778cb72d2ea55d1b762dL'
p6071
g2
((lp6072
g4
atp6073
Rp6074
sS'0x265f92e036b3fa6a57216b1eac7cbb34a6814da23013f71b706504f961L'
p6075
g2
((lp6076
g4
atp6077
Rp6078
sS'0x85fbf89b9e23185ff0dbdd63d2517343ff2b87fb615ffb7f235c9f6L'
p6079
g2
((lp6080
g4
atp6081
Rp6082
sS'0x765cf816d1743bb62456c96f57fc0beefdbdf78580620L'
p6083
g2
((lp6084
g4
atp6085
Rp6086
sS'0x1962283a12449d3c4a7b093ad42b6dc4e9a7daf405061aL'
p6087
g2
((lp6088
g4
atp6089
Rp6090
sS'0x9709cb60fcf6f8795b4a8824bc7fc4662e2a2a817dL'
p6091
g2
((lp6092
g4
atp6093
Rp6094
sS'0x7b77e09d18c7dac9a34a62dc1eab5ab4e8d86aef1afL'
p6095
g2
((lp6096
g4
atp6097
Rp6098
sS'0x1c494d16a43d7aed4fc9f6bc35043807f3e5a940055d111adL'
p6099
g2
((lp6100
g4
atp6101
Rp6102
sS'0x94b4182c24b545bd3fe25cae5e436b618d108820698d3df4b95L'
p6103
g2
((lp6104
g4
atp6105
Rp6106
sS'0x5433bf09375a9188e695c63c5e7d226d0a9a52b049L'
p6107
g2
((lp6108
g4
atp6109
Rp6110
sS'0x2ad57e0cdc3e4d53fbe70bb08d500b8a4c014f8f9824e56fb1aaL'
p6111
g2
((lp6112
g4
atp6113
Rp6114
sS'0x152f85e181e393bb90755ad3ef489a602e1541d6e142c404fL'
p6115
g2
((lp6116
g4
atp6117
Rp6118
sS'0x51ab8fa791445ceb635d8def15a852a34760286c5c17ebbff7bef3fca2L'
p6119
g2
((lp6120
g4
atp6121
Rp6122
sS'0x34be351b36b4e53217461ae7f88e90e237b7586a0L'
p6123
g2
((lp6124
g4
atp6125
Rp6126
sS'0x393862c4a4da6d86507b1f7020face6835b4c00a28L'
p6127
g2
((lp6128
g4
atp6129
Rp6130
sS'0x99decf4b8aa66dec413037d35a1fd453cc060e288bc317L'
p6131
g2
((lp6132
g4
atp6133
Rp6134
sS'0x38ab8ff33a7a5f570c163963a786e5a9f132dbbad0L'
p6135
g2
((lp6136
g4
atp6137
Rp6138
sS'0x528e36b52f207f7c658d1ccf59e00c2ca3bc1d4068b7d0d9dd375L'
p6139
g2
((lp6140
g4
atp6141
Rp6142
sS'0x21ef6f6390514c18b47a8aac3e0e1734f374ea87898b52ab76f1L'
p6143
g2
((lp6144
g4
atp6145
Rp6146
sS'0x1fd577a438d756215d302bb480bf11d7de5732280aL'
p6147
g2
((lp6148
g4
atp6149
Rp6150
sS'0x10e429adf0fe1b4d742280606c085ec506639902513d2ecfdbef17729d9L'
p6151
g2
((lp6152
g4
atp6153
Rp6154
sS'0xfd8b67c4fdaa3cbd8a3493f091b2c6c28a813bf7b3fb989L'
p6155
g2
((lp6156
g4
atp6157
Rp6158
sS'0x55bb24f022d4444f29558b3916fd2d750a44e4758a2565cc748203077L'
p6159
g2
((lp6160
g4
atp6161
Rp6162
sS'0x34eb261208c0fc5020b717be1493a91e4364d72fb64037L'
p6163
g2
((lp6164
g4
atp6165
Rp6166
sS'0x8fc3cbd0e3b75b5f6887b7626f12bcba63334867b539L'
p6167
g2
((lp6168
g4
atp6169
Rp6170
sS'0x273508e5978c56d690ffbb845fe7f9b78116e7ef0e52L'
p6171
g2
((lp6172
g4
atp6173
Rp6174
sS'0x2af5fc852bb30070eed118f576bf5ea73b03d4f83fe7617548a204L'
p6175
g2
((lp6176
g4
atp6177
Rp6178
sS'0x109a7cc9af2de26bcd138f75076e7d9f624aebf11338L'
p6179
g2
((lp6180
g4
atp6181
Rp6182
sS'0xce29afe2691629995442bc4fda1e616c04d810bae784fdL'
p6183
g2
((lp6184
g4
atp6185
Rp6186
sS'0x4c7804fdea193f07420aa1b4e63ec7ff0479f68fc85cL'
p6187
g2
((lp6188
g4
atp6189
Rp6190
sS'0x2e65a6e29bc17534b992d7a8452316f6a99450aef063a5c9820ba4e9ddL'
p6191
g2
((lp6192
g4
atp6193
Rp6194
sS'0x203ab5e1b1452d0ba593c168ce8dec62ae09aa24fb0L'
p6195
g2
((lp6196
g4
atp6197
Rp6198
sS'0x54bfe11b1194706c321d52d7fa65e48a8b6ffe431504ca5c23dL'
p6199
g2
((lp6200
g4
atp6201
Rp6202
sS'0x4fcd2f74e67915126d0db1b958964f900bad238b2bced8L'
p6203
g2
((lp6204
g4
atp6205
Rp6206
sS'0xb633b14591f426ced2891b68d6ca14af2c21a3e3L'
p6207
g2
((lp6208
g4
atp6209
Rp6210
sS'0x60a2d43285f873c12a5c97ef537ac78b6df085754cc3a3a9aad956L'
p6211
g2
((lp6212
g4
atp6213
Rp6214
sS'0x41ed49bd3d8cabaff56a34aac08c6ae0a700ba0682808eL'
p6215
g2
((lp6216
g4
atp6217
Rp6218
sS'0x18410d0f0ac05dc8e68f5ca4a0eec65af152e4ab830a2eL'
p6219
g2
((lp6220
g4
atp6221
Rp6222
sS'0xcb117aa2f27b5d291fd2c9d47a44d5bc036a771e35c7bb98e2c517fc52b15L'
p6223
g2
((lp6224
g4
atp6225
Rp6226
sS'0xbb41ef1e380d71e3ea7d54ac51737e1770ef79b608830b14741L'
p6227
g2
((lp6228
g4
atp6229
Rp6230
sS'0xfe40575a1f31016c2fe451e4d3ccaa098c06fe7afb435L'
p6231
g2
((lp6232
g4
atp6233
Rp6234
sS'0x2e09de5a32f8b5da131ed8d65d8c88ce0128949a786878e127c5fL'
p6235
g2
((lp6236
g4
atp6237
Rp6238
sS'0x17da373c719a0d39a534d23326ec3c5468330c8bf1b9dfL'
p6239
g2
((lp6240
g4
atp6241
Rp6242
sS'0x5f26363808b94f9f285efa6c83543fab1ddc8f3cdebabace4b931L'
p6243
g2
((lp6244
g4
atp6245
Rp6246
sS'0xb337ba6f76e55aa54f491e9c4b47ded565f2124a8ebL'
p6247
g2
((lp6248
g4
atp6249
Rp6250
sS'0x2f042fdca025e9d599833f16d54df76ee5fa3dfe30ee2fefbf48c966L'
p6251
g2
((lp6252
g4
atp6253
Rp6254
sS'0x15e0de708c743004ddaf63db0f7f272f466bc5e3c7fc2522L'
p6255
g2
((lp6256
g4
atp6257
Rp6258
sS'0xa219d58fefe9bda64a424349c1c2dad4ceb1beed13edL'
p6259
g2
((lp6260
g4
atp6261
Rp6262
sS'0xf925d27be28db2ad1437349e6bba112ffb58ca6224630e46f8b221633d9L'
p6263
g2
((lp6264
g4
atp6265
Rp6266
sS'0x7151e122014ad5d1608fabab9aded7078e6649cca17579743d2e51be7bL'
p6267
g2
((lp6268
g4
atp6269
Rp6270
sS'0x82c22728c935cf9acf19a66be2c7e1765869a88401443e0418L'
p6271
g2
((lp6272
g4
atp6273
Rp6274
sS'0x18d7ded77a9b1191f795b5ea465ef29a301f989d559633b1569e9L'
p6275
g2
((lp6276
g4
atp6277
Rp6278
sS'0x27ada288b5db04783c37fc086dd825d4e6217a2dd9b9eaL'
p6279
g2
((lp6280
g4
atp6281
Rp6282
sS'0xae01669e990f4343e6d672cf3df135e0bd586a03cL'
p6283
g2
((lp6284
g4
atp6285
Rp6286
sS'0x7359a9eae9153982c7c2a2831a3cc6340240c38fc67L'
p6287
g2
((lp6288
g4
atp6289
Rp6290
sS'0xb186cd2e3190d7fa897f7a2b8c338a5a3ebd75faL'
p6291
g2
((lp6292
g4
atp6293
Rp6294
sS'0xe8759af32b663bdf859ebb363ff1dbb4bb8a758841496d997L'
p6295
g2
((lp6296
g4
atp6297
Rp6298
sS'0x11a2e07aff9245df8302ce5695e5b704050e962b8c23698fL'
p6299
g2
((lp6300
g4
atp6301
Rp6302
sS'0x842e4cd84e9682a03bbe6b40eccc285a7c8a8c0fdL'
p6303
g2
((lp6304
g4
atp6305
Rp6306
sS'0x3238b0e372129b8eaceaab7abed0c9ab1259d5494a57L'
p6307
g2
((lp6308
g4
atp6309
Rp6310
sS'0x3fbe0ea320ba1845c67ac75281de788b222d8576434a78a47c119c940e5L'
p6311
g2
((lp6312
g4
atp6313
Rp6314
sS'0x371fce046d573f2b07df49b92d23ad091d6b9057cL'
p6315
g2
((lp6316
g4
atp6317
Rp6318
sS'0x8dcd948b4965759fa982ae3bfbe1edb15dded3c3cf81725d70L'
p6319
g2
((lp6320
g4
atp6321
Rp6322
sS'0x47a1958f2ad28d1421e8fcd142e9492fe6436d56L'
p6323
g2
((lp6324
g4
atp6325
Rp6326
sS'0x31e1aabe168fdf0eb0310ec4da560c0d03b84b891b4e564941L'
p6327
g2
((lp6328
g4
atp6329
Rp6330
sS'0xeb16f9c9f333906b625cbec9383832f51071f0831e1dd6727fc0374L'
p6331
g2
((lp6332
g4
atp6333
Rp6334
sS'0x7a567c173970bd726802284528988c5b28b7045168d99797c77b394fL'
p6335
g2
((lp6336
g4
atp6337
Rp6338
sS'0x2766bba7c00c2128535fe04cbcb7a4ac3cbce13d10761f6L'
p6339
g2
((lp6340
g4
atp6341
Rp6342
sS'0x4325cba4bec2d67360a00587d987838b19a6798ed7L'
p6343
g2
((lp6344
g4
atp6345
Rp6346
sS'0x15cce9db182395a6452d8d009f2796ec5cec39d766529e2ccbL'
p6347
g2
((lp6348
g4
atp6349
Rp6350
sS'0xdf00189826be1f3a73310722e19c053df66e20ff12e76f2L'
p6351
g2
((lp6352
g4
atp6353
Rp6354
sS'0x3168df1b671f8570865a6e31741714b7700f86345098553667b1L'
p6355
g2
((lp6356
g4
atp6357
Rp6358
sS'0x3a6e53f336335c9a45ee7198e8bd1cf454f89418eaL'
p6359
g2
((lp6360
g4
atp6361
Rp6362
sS'0x23e11ed8172c1aaea785b97fa8494e24b053e60fcfb6cb376L'
p6363
g2
((lp6364
g4
atp6365
Rp6366
sS'0xa2d2157a341eb15af7a2882679f4fcee084c5ca3899f1L'
p6367
g2
((lp6368
g4
atp6369
Rp6370
sS'0xd05c506fcc1c872e84e5a0e209cc379436d279f1467dL'
p6371
g2
((lp6372
g4
atp6373
Rp6374
sS'0x8760d5f8bd1f22347a3dcc5524463e991028fd0d7de32L'
p6375
g2
((lp6376
g4
atp6377
Rp6378
sS'0x37442fc8783d35c08d958f91103c076a68f32796d01cL'
p6379
g2
((lp6380
g4
atp6381
Rp6382
sS'0x4ca7481d5e11afb774e2764da6f09891544c2024cbdaL'
p6383
g2
((lp6384
g4
atp6385
Rp6386
sS'0x10cc09450f15072e48fe1735ca622e483fb3b144e07bcL'
p6387
g2
((lp6388
g4
atp6389
Rp6390
sS'0x600c5a874b7bdfb5280e0717223dae6688e3a0d542L'
p6391
g2
((lp6392
g4
atp6393
Rp6394
sS'0x1b6ecec6d2738f72eadd5e420836a02b817d6b87L'
p6395
g2
((lp6396
g4
atp6397
Rp6398
sS'0x3c222528945bb53d18d2354e77df5bbeb30f462dL'
p6399
g2
((lp6400
g4
atp6401
Rp6402
sS'0x14ef48c7931fa0772cb51128c50f55f0b7efd151702fc45L'
p6403
g2
((lp6404
g4
atp6405
Rp6406
sS'0xa4eb5270402046071315a1ad89fc74c62f73ef7b0737b3a66cL'
p6407
g2
((lp6408
g4
atp6409
Rp6410
sS'0x42d29f98f64b30a35664aaf574fc058a83bcca816b41L'
p6411
g2
((lp6412
g4
atp6413
Rp6414
sS'0x13df2217251a4f9be6957fe0cedb6622c8a8fd0926b0dc3c9L'
p6415
g2
((lp6416
g4
atp6417
Rp6418
sS'0x48a027506bec6740b718a9d67bc8abd8e53d776d09feL'
p6419
g2
((lp6420
g4
atp6421
Rp6422
sS'0x30794f21c99ef2333c16148d27d3093d3fbc3d8be196L'
p6423
g2
((lp6424
g4
atp6425
Rp6426
sS'0x2a1765023c95c870599297061aeff483b46925f144L'
p6427
g2
((lp6428
g4
atp6429
Rp6430
sS'0x815aecfb502593909fb72c5667bce14f1443321f84bb5L'
p6431
g2
((lp6432
g4
atp6433
Rp6434
sS'0xc5c7de17d8f1f1f6e2a369d00316b811a3f4c276c75ef5L'
p6435
g2
((lp6436
g4
atp6437
Rp6438
sS'0x413b30b271de82d23142951700c12f9f3f6b649dc27b5f4bL'
p6439
g2
((lp6440
g4
atp6441
Rp6442
sS'0x839971bb8fa238bca3c6f22bcd487bf875df42a44c35903f6d3bL'
p6443
g2
((lp6444
g4
atp6445
Rp6446
sS'0x30fa2c73f4774f2d6eb01391d43242ff868ff09feb50af9014ea0060e6cL'
p6447
g2
((lp6448
g4
atp6449
Rp6450
sS'0xbf5b4f2af79a056dd62a17a357b04d8e56ec80afb4761cc6L'
p6451
g2
((lp6452
g4
atp6453
Rp6454
sS'0x8a0a578e8170946da0a56613140c155eb2d26c45a1dc4aL'
p6455
g2
((lp6456
g4
atp6457
Rp6458
sS'0x47de6d18dd617755d5ee55ed475455e466fb28219b4fe3fbbd05920L'
p6459
g2
((lp6460
g4
atp6461
Rp6462
sS'0x38cc127869be0647c5fb328da941a192d5a6a880dc5e5d50f1ad7d3dc77L'
p6463
g2
((lp6464
g4
atp6465
Rp6466
sS'0x7fcf5dfba9bcc6f91eaa09043dfb6dd9052348678b6bc0be31L'
p6467
g2
((lp6468
g4
atp6469
Rp6470
sS'0x1967a4f106995fa3adad595a48626a16b3ce1613cda2cba3346fL'
p6471
g2
((lp6472
g4
atp6473
Rp6474
sS'0x277451718fb5e625785652a0bc37b6d05800aec6d9552L'
p6475
g2
((lp6476
g4
atp6477
Rp6478
sS'0x2e646ef3326cbdeaa6cf58f3d221323f7b91920d37e0089L'
p6479
g2
((lp6480
g4
atp6481
Rp6482
sS'0x28c77eb2687ae9d0b2744e49ed3bddb8b52c334d19f606e39600955eL'
p6483
g2
((lp6484
g4
atp6485
Rp6486
sS'0x29234a32c89dce36722f2241ad117541ea8612506ccL'
p6487
g2
((lp6488
g4
atp6489
Rp6490
sS'0x1f5bebbd1ec92a4fd5a8ef6996718adaf708ffa55d54fL'
p6491
g2
((lp6492
g4
atp6493
Rp6494
sS'0xe939f2cb60f38e56dd4937cb9a2792f2d084f5f8cL'
p6495
g2
((lp6496
g4
atp6497
Rp6498
sS'0x1524d91581ec38569d2c548c46922001329d1930f5L'
p6499
g2
((lp6500
g4
atp6501
Rp6502
sS'0xf75b5ca52f7f080ad819c15c6f81dedc6f1b6b6L'
p6503
g2
((lp6504
g4
atp6505
Rp6506
sS'0x4166bd91490aacac21a66f9ee1cb324072e0cb0c7e3d74ad70L'
p6507
g2
((lp6508
g4
atp6509
Rp6510
sS'0x1f7b28a692a1ddb679789f0d7cf5fc355c1cb7f35509fc05d0d5597L'
p6511
g2
((lp6512
g4
atp6513
Rp6514
sS'0x590941eed0e42d5632c0ad6e4dd025e4be8315c47954bL'
p6515
g2
((lp6516
g4
atp6517
Rp6518
sS'0xa7ce43a896da0cfa50f3b1b6457cb39f9f5028d66c217a0fb8d43af2L'
p6519
g2
((lp6520
g4
atp6521
Rp6522
sS'0x2f8a2374ff05a12ddce1cc3dc8d3215a40f0592c38b0e34eL'
p6523
g2
((lp6524
g4
atp6525
Rp6526
sS'0x3475525e8d10c706776a1013b0f8554ce99459128c9d21f8a72fb1cL'
p6527
g2
((lp6528
g4
atp6529
Rp6530
sS'0x7e45d371e58fff39597727d9b25b30d5fbcda974bc9L'
p6531
g2
((lp6532
g4
atp6533
Rp6534
sS'0x1082b30bcee3864f3bee675c02a3a7648c58e926e479cd42dc1535L'
p6535
g2
((lp6536
g4
atp6537
Rp6538
sS'0x22569a5dc25b65cb305607d31acff35ffd238597ffL'
p6539
g2
((lp6540
g4
atp6541
Rp6542
sS'0x3ab674bd911f97c4fa0ed6d0ce88c3150165f8ba19L'
p6543
g2
((lp6544
g4
atp6545
Rp6546
sS'0x61aa6ffe15610d7c2b5e69e444a035bc729a6e45cL'
p6547
g2
((lp6548
g4
atp6549
Rp6550
sS'0x9ca8a8bdc4a806cb139b224827f98ae60266b3d5392415e2aL'
p6551
g2
((lp6552
g4
atp6553
Rp6554
sS'0xc254a62faff9f2aba4268620072fa83f8873ba29099b5cdd3fb636eL'
p6555
g2
((lp6556
g4
atp6557
Rp6558
sS'0x2afd6999707ff1ee41cc5f07c1604f5aaf0b14e9dL'
p6559
g2
((lp6560
g4
atp6561
Rp6562
sS'0x41c22befe756f9a9ac111bd75431ea7591c9ec764d2823271L'
p6563
g2
((lp6564
g4
atp6565
Rp6566
sS'0xa73f73452df0e4fdea1626edd9d8cdb5cef9d8c15861L'
p6567
g2
((lp6568
g4
atp6569
Rp6570
sS'0x4cdee3b08a7dd98bbfafcbe2d25c0c94413f0dab150L'
p6571
g2
((lp6572
g4
atp6573
Rp6574
sS'0x178502983c3783244d13a7eadb09e0c48c62f9b872cb3b6cfL'
p6575
g2
((lp6576
g4
atp6577
Rp6578
sS'0x34ae62e4be5e9a1c700daeceb520c13b97fb271d805b1f425b13L'
p6579
g2
((lp6580
g4
atp6581
Rp6582
sS'0xabde110638945a69a6009f974fa31c6f101dbbe56eL'
p6583
g2
((lp6584
g4
atp6585
Rp6586
sS'0x223c1e01d91126c3b39033ad7edc0be000beb65108c9bL'
p6587
g2
((lp6588
g4
atp6589
Rp6590
sS'0x1b8cb90139831c898e45aa6e270857a929d2371926e4e9063d5e1920105eL'
p6591
g2
((lp6592
g4
atp6593
Rp6594
sS'0x1a2c1c4716bd6cdd436ee1b77f47262e2430228c4ec5927c7e1L'
p6595
g2
((lp6596
g4
atp6597
Rp6598
sS'0x240fd8c44954001fa5662d169b5b3637c1dbb4f0e18L'
p6599
g2
((lp6600
g4
atp6601
Rp6602
sS'0x4546c3dcdb3d23e90c043a3e11bc13af948264c391ebf39L'
p6603
g2
((lp6604
g4
atp6605
Rp6606
sS'0x10fed44437e0c1b2d3c3493e3806b13e5ee28daf4b12d93e4ba6f50L'
p6607
g2
((lp6608
g4
atp6609
Rp6610
sS'0x1c0ef00aecc351dc9d2f171703061265d2faf9fefdf9c0018c8L'
p6611
g2
((lp6612
g4
atp6613
Rp6614
sS'0x2b1e4e6c21130ccdcceaa9e2db484043e36ad357e4abbL'
p6615
g2
((lp6616
g4
atp6617
Rp6618
sS'0x44d0a5cd104f6a9068520ab055e117a83593edd5a77f0f5607073755dL'
p6619
g2
((lp6620
g4
atp6621
Rp6622
sS'0x3c9f1ab66b6cb905206483c72061f7471b4063342c11f18c6eL'
p6623
g2
((lp6624
g4
atp6625
Rp6626
sS'0x6c6250ed59d0a8f8e8eb06b73858031eda8980373fL'
p6627
g2
((lp6628
g4
atp6629
Rp6630
sS'0xce03007fe767c16999b102b01c85f60881c172b68a3778c971d530ffL'
p6631
g2
((lp6632
g4
atp6633
Rp6634
sS'0x126bebc317332db10f4f2f7bd73a0ff0b34b695913255f0a8df8cL'
p6635
g2
((lp6636
g4
atp6637
Rp6638
sS'0x5840a57a9ba8c1fd76a65e5c8a79503c09c4f247e2L'
p6639
g2
((lp6640
g4
atp6641
Rp6642
sS'0x4da5d16be5ca7cb62208e6d05d61f68ab8cddb71dedc1ffL'
p6643
g2
((lp6644
g4
atp6645
Rp6646
sS'0x3aae533062ed0b752ebe16d543ba5bad58a30c0198f396fc810591f5e5d2fL'
p6647
g2
((lp6648
g4
atp6649
Rp6650
sS'0x4709afe8f88475cc9a3457a052a4ada98b1ca6c0cfc7L'
p6651
g2
((lp6652
g4
atp6653
Rp6654
sS'0x1a774d8d5b494d4acd564805149e06010abe29ececf0cb8fe50c08L'
p6655
g2
((lp6656
g4
atp6657
Rp6658
sS'0x7f065ec659ccc4b311b73eab6fdfdcb65a4e9d57L'
p6659
g2
((lp6660
g4
atp6661
Rp6662
sS'0x1a187e69be95507a92f7ed663b384265ea4348f539806e6cL'
p6663
g2
((lp6664
g4
atp6665
Rp6666
sS'0x37bd3d3f084bad22aa2c1c4b14274ad2abffa83cf31d77L'
p6667
g2
((lp6668
g4
atp6669
Rp6670
sS'0x9907c49b8905ecdfc410ceb902df676a3eda4a7516L'
p6671
g2
((lp6672
g4
atp6673
Rp6674
sS'0x562252de7bec1493049f22f4136b3ea64b618cde20L'
p6675
g2
((lp6676
g4
atp6677
Rp6678
sS'0x77bd25150f9bc4d1f9799deeaaa8c51189f00a5c3607b2ac0L'
p6679
g2
((lp6680
g4
atp6681
Rp6682
sS'0x104a961716484bab9d1b35c93c95f633d524169668f64L'
p6683
g2
((lp6684
g4
atp6685
Rp6686
sS'0xee31b9f83593b92c3ab684b0a2cf6559d8d1ccc0386fe673e10544L'
p6687
g2
((lp6688
g4
atp6689
Rp6690
sS'0xf0abc7503a98f2351acb9718d35ece7e159e3167a359L'
p6691
g2
((lp6692
g4
atp6693
Rp6694
sS'0x3d706b5d05605c7a78df02b4387a21b7f79f4f2fdL'
p6695
g2
((lp6696
g4
atp6697
Rp6698
sS'0x2982553aba96a31e6cac5c03a82899dc70a9b0ee508b4L'
p6699
g2
((lp6700
g4
atp6701
Rp6702
sS'0x15f9c30266c2e50435139937967218553f8e82162670e3L'
p6703
g2
((lp6704
g4
atp6705
Rp6706
sS'0x11d72a2a81a2bfb5e9b7e570aaed3fa6f0f1923e2b6cfdfad1929fL'
p6707
g2
((lp6708
g4
atp6709
Rp6710
sS'0x334a44fe74bbce84bb7d71a559dff9df19c10c804e9636L'
p6711
g2
((lp6712
g4
atp6713
Rp6714
sS'0x25736c9b10913d3ba43326462ab8e131c53a247a05f162cL'
p6715
g2
((lp6716
g4
atp6717
Rp6718
sS'0xcc38f90cccc42578f7dd862e347eaedd0db20a98be56eL'
p6719
g2
((lp6720
g4
atp6721
Rp6722
sS'0x1a1eff4f53e948eb33de0810340cbec38de5c861713a1c521d6c34eL'
p6723
g2
((lp6724
g4
atp6725
Rp6726
sS'0x24cf08deb209e2bb740bc11b6c8a417497fde4b2324ee9c49L'
p6727
g2
((lp6728
g4
atp6729
Rp6730
sS'0xef678f4201a94f54fd0ad419122eb7d54b699ced0aa155L'
p6731
g2
((lp6732
g4
atp6733
Rp6734
sS'0x67fb9361dd55d4d75d0ee00fa505af72991d6dd3L'
p6735
g2
((lp6736
g4
atp6737
Rp6738
sS'0x154f99e99035bd64b81475bd0a1e314318be072984c2f84b2230L'
p6739
g2
((lp6740
g4
atp6741
Rp6742
sS'0x685fa0be175c9b7223618776e9afae5aa3e603066d3L'
p6743
g2
((lp6744
g4
atp6745
Rp6746
sS'0x92c3ef7afe7286f5705b01795c4b8155faf59258de1dd1dae528L'
p6747
g2
((lp6748
g4
atp6749
Rp6750
sS'0x63bc23e50e767b420af9f04641ecddbbdc152a2c5L'
p6751
g2
((lp6752
g4
atp6753
Rp6754
sS'0x22197f069c98257c7ba90a11f078e7770715981cb37922f3e72L'
p6755
g2
((lp6756
g4
atp6757
Rp6758
sS'0x340d8f6373c2aa5d0d27cdebf1ee1230176017712479cde9d1L'
p6759
g2
((lp6760
g4
atp6761
Rp6762
sS'0x1127c6246a2ed002ae84e127e3e53042dd2ec608758L'
p6763
g2
((lp6764
g4
atp6765
Rp6766
sS'0x24c9caa1b92eb14bb2b5cd5d71f753c665d5307692e8dedb1ecL'
p6767
g2
((lp6768
g4
atp6769
Rp6770
sS'0x61c2221eca529ed96e19b6dbdf9bfe704b69f948L'
p6771
g2
((lp6772
g4
atp6773
Rp6774
sS'0x58ada151e918ae8b65f82fae8347461f0199014810d4a5cdeL'
p6775
g2
((lp6776
g4
atp6777
Rp6778
sS'0x6071521aff871d86dd2c9f90616acd2b96912caa916e70327edL'
p6779
g2
((lp6780
g4
atp6781
Rp6782
sS'0x17d8a86f32551f07738df61c2e7c2463d1026bf35b126cec039c4c84f6L'
p6783
g2
((lp6784
g4
atp6785
Rp6786
sS'0x14dc146f7b4a089a58f32356599489776876b285a0cfd6cfL'
p6787
g2
((lp6788
g4
atp6789
Rp6790
sS'0x4c36eed313ccf8d0101159f62773a1b26a40dc8bf861942b69e4L'
p6791
g2
((lp6792
g4
atp6793
Rp6794
sS'0x8425fb793316a76275bd86001a083b8d211f9479076d85L'
p6795
g2
((lp6796
g4
atp6797
Rp6798
sS'0x130cff0b832297197d0f1a91ada7adfb310cba5dec4L'
p6799
g2
((lp6800
g4
atp6801
Rp6802
sS'0x8080ed0b89152680e5c8f3ad98476432307bfebec95a45aL'
p6803
g2
((lp6804
g4
atp6805
Rp6806
sS'0x1eb96af4cc12745ed7d73678beebe362551880fb983899af71afc58L'
p6807
g2
((lp6808
g4
atp6809
Rp6810
sS'0x68c2a2068864d4947b5e0e0dcefc2c721e0e258f507049b029745L'
p6811
g2
((lp6812
g4
atp6813
Rp6814
sS'0x23dae83bc268ada73fa64943ceabe37fa292d1d6eef992c3423a94ff0d1aL'
p6815
g2
((lp6816
g4
atp6817
Rp6818
sS'0xa5ccc3d3e2d9bd5305625d1abbd5daf2513b4b95ffecL'
p6819
g2
((lp6820
g4
atp6821
Rp6822
sS'0xdf96d5934f73c7f96f7544fed8c010476c182813b056c35776555L'
p6823
g2
((lp6824
g4
atp6825
Rp6826
sS'0x5639944443b098f5ad45505d5d68aee9dee718d5312af7de3bL'
p6827
g2
((lp6828
g4
atp6829
Rp6830
sS'0x4c5ff9d04daffd08f471bc7f905acf3ae43292156381570285285L'
p6831
g2
((lp6832
g4
atp6833
Rp6834
sS'0x2ca952de8a0bb2c5e952a975fcfbc7c70f8c43cdaf9df2c8ce4dc63L'
p6835
g2
((lp6836
g4
atp6837
Rp6838
sS'0x202cf0b002a133a0f581ac32af904265f2f394001a957f0L'
p6839
g2
((lp6840
g4
atp6841
Rp6842
sS'0x5fd85f2b3270aa991e1ecd7df982d95069a592f317a263090d9b72bd4b59L'
p6843
g2
((lp6844
g4
atp6845
Rp6846
sS'0x877e1a5acdd83027a638681624e215c65ccb099f80ad55479fbL'
p6847
g2
((lp6848
g4
atp6849
Rp6850
sS'0x10b567b14c4e51b32dd1da809bb784be6a48b6c27e0f673L'
p6851
g2
((lp6852
g4
atp6853
Rp6854
sS'0x182a5e0ae894b07561f1c7240966d085685f88b6161626d33c0d235L'
p6855
g2
((lp6856
g4
atp6857
Rp6858
sS'0xab9a58c36045147955f91e0cfe9a017f6cf6aebf336359L'
p6859
g2
((lp6860
g4
atp6861
Rp6862
sS'0x1705bf9a0b8712421409a84dbe43a632f32cc6f801bd0300L'
p6863
g2
((lp6864
g4
atp6865
Rp6866
sS'0x54072d4093d5afd09d8525a01674f53a947aa23c92d6bf7d8319c6a5e8L'
p6867
g2
((lp6868
g4
atp6869
Rp6870
sS'0x484844b5b3a9a2a36bc2dca19de890a7fc521a9a889d65fe64a10L'
p6871
g2
((lp6872
g4
atp6873
Rp6874
sS'0x34d3105c17573d155c46c599b39c838530b6a82c2L'
p6875
g2
((lp6876
g4
atp6877
Rp6878
sS'0x884215b8fa932003649d1ccc70fc15f442f8324572bL'
p6879
g2
((lp6880
g4
atp6881
Rp6882
sS'0x49b465cb9c036092784e7fb13996894660b4949030c9a4c4dL'
p6883
g2
((lp6884
g4
atp6885
Rp6886
sS'0x290d7d4e7c220366760b6ac39b1fb10e3f32f6684652dfL'
p6887
g2
((lp6888
g4
atp6889
Rp6890
sS'0x3bd5efa3ba3297ffc09dcc476dadbdda377212fa61a6d7064345d07a9L'
p6891
g2
((lp6892
g4
atp6893
Rp6894
sS'0x560a12995ae1d4b88dcc9f902b7c7500f66a09ed81051299dedbc284L'
p6895
g2
((lp6896
g4
atp6897
Rp6898
sS'0x485824b25bcbf0ed33663d2caa1eaff082261981f95168781f0078L'
p6899
g2
((lp6900
g4
atp6901
Rp6902
sS'0x64c7a5d7cb448485d69f5faf6b30bc9b9859cd47aL'
p6903
g2
((lp6904
g4
atp6905
Rp6906
sS'0x265fa6fd3f490d86132f37472ed4e64e7be6d87a7b2L'
p6907
g2
((lp6908
g4
atp6909
Rp6910
sS'0x16663995ecbc7e16d0bf4a0c4b81bc4a99d9a30a029ca6L'
p6911
g2
((lp6912
g4
atp6913
Rp6914
sS'0x5bf26c66c6c84d03ec81837415750996ff298a61880cL'
p6915
g2
((lp6916
g4
atp6917
Rp6918
sS'0x3b9d66457d50f392a230a5ef298e497fd0f5e644ba46928a6L'
p6919
g2
((lp6920
g4
atp6921
Rp6922
sS'0xe9f45869e2e5549b192b0467dfe24223a4e2cdc2c6b35b3f63eL'
p6923
g2
((lp6924
g4
atp6925
Rp6926
sS'0x37bfc7f21fb8b0d8c8e114057e87972a64ef726bf99fL'
p6927
g2
((lp6928
g4
atp6929
Rp6930
sS'0x43b07e3650d3c9b85ff0eaab359fcff55440b047f69081783df84cbedb30dL'
p6931
g2
((lp6932
g4
atp6933
Rp6934
sS'0x2d7cff4bb68cac96c98a72c2e2b7b9c8dc6a8c880aa247L'
p6935
g2
((lp6936
g4
atp6937
Rp6938
sS'0x84e49da572e206eb49199dd7f5558bdf65b804a6b2b74L'
p6939
g2
((lp6940
g4
atp6941
Rp6942
sS'0x8a1d9b0e98ea2de01ad493cd5ef097f4a290d3dbd244607878367L'
p6943
g2
((lp6944
g4
atp6945
Rp6946
sS'0x12bf34d1557b2fd1bf836d2370d0bb32fc0f46045fc990dcf99dec3L'
p6947
g2
((lp6948
g4
atp6949
Rp6950
sS'0x6a80ee48c516c672970b3f66951c2fb24dfd2ccedd8280d0f70L'
p6951
g2
((lp6952
g4
atp6953
Rp6954
sS'0x5ee7fb63c0bfa22ead7bdb2ecc96f236908a82598c41e83d9cd143e2L'
p6955
g2
((lp6956
g4
atp6957
Rp6958
sS'0x26c725c6c002bbc85a899a0dce79e911b5255d6c635d7a6L'
p6959
g2
((lp6960
g4
atp6961
Rp6962
sS'0x631786955f5139ff8fda88d9f8ec627dd5619fb91b963L'
p6963
g2
((lp6964
g4
atp6965
Rp6966
s.